ccopy_reg
_reconstructor
p0
(clrsgd
LogisticRegressionSGD
p1
c__builtin__
object
p2
Ntp3
Rp4
(dp5
Veta
p6
F0.01
sVweight
p7
(lp8
F0.0
aF-0.006760136498032232
aF0.0
aF0.00913229748665735
aF-0.0034840845299760606
aF-0.003419315332730866
aF-0.030875031978702564
aF-0.001979327631732577
aF-0.0667447552546508
aF-0.00872693573899996
aF0.006323088679098705
aF-0.0004450328326916029
aF-0.012287179161623377
aF-0.004590801060412585
aF-0.012524158274315307
aF0.00728998346205719
aF-0.010207093473091962
aF-0.007129992398527645
aF-0.0044620889405024835
aF-0.006041241560787305
aF0.00887986374927831
aF-0.016619900240712426
aF-0.0033553496762986335
aF-0.004849133275569551
aF-0.004369242869146179
aF-0.019434237689260926
aF0.0022079017901053414
aF0.005685228914396183
aF0.007127358289574498
aF-0.003180523050375285
aF0.0016060751938224704
aF0.012949626950425886
aF-0.000999858666633335
aF-0.006999780331238091
aF-0.019401656150953073
aF-0.009343604165702526
aF0.002466733657972347
aF0.0
aF0.0
aF0.00227619828775962
aF-0.0021007070708787367
aF-0.0021163330215216926
aF-0.010380595652837384
aF-0.005067888826346082
aF0.002687581049268516
aF0.005528426755418146
aF-0.003777946702964128
aF-0.00287964904124431
aF-0.00405805752509152
aF-0.003927580822447175
aF0.0024718546071727044
aF0.0009438127865618135
aF-0.0047715722416912885
aF-0.009385925155511166
aF-0.019809466987145447
aF0.009788806564707913
aF-0.00839280289302327
aF-0.008917493662614394
aF-0.013327791071698736
aF0.005796162011277238
aF0.018457920970104694
aF-0.004852621919732027
aF-0.00043149914350791053
aF-0.012593477597654612
aF-0.01124714189297405
aF-0.0025982902606213575
aF-0.003972738189383369
aF-0.0022865829416299087
aF0.0
aF0.007153989806785111
aF0.0059092262103231635
aF-0.013860512158075343
aF-0.004630487369234384
aF-0.0016654651173175794
aF-0.0025058467078920344
aF0.0071146658158326645
aF-0.004282004109203408
aF-0.0004875943308638962
aF0.0036831241642895163
aF-0.00855855009910067
aF0.00549459830484524
aF0.0
aF-0.003517380796351537
aF-0.001977265359186259
aF-0.004834938331231774
aF-0.004590801060412585
aF-0.0060160735299953725
aF-0.012276416177829381
aF-0.004473165317643317
aF0.0
aF-0.0037281041126337178
aF0.01383606297686832
aF-0.004309926381789806
aF0.0
aF-0.01850518183977646
aF-0.015157341320797215
aF-0.004728396309340835
aF-0.001422798746668378
aF0.0
aF0.006823569555978391
aF-0.00535944804890531
aF-0.007727929261646033
aF-0.004849133275569551
aF-0.016597331827673107
aF0.0
aF0.005242527278854672
aF-0.009854643018495049
aF-0.019513514192492615
aF-0.002823963235032677
aF-0.028744074736964543
aF-0.0049928144319753235
aF-0.004103573510867293
aF-0.009291835383526464
aF-0.011078482122367065
aF0.007340665997075474
aF0.0
aF0.0
aF-0.03587502142646867
aF-0.0025476680178260513
aF-0.007490889474820864
aF-0.011698799305326604
aF-0.009070865020910524
aF-0.0036113110431173325
aF-0.031048395670692033
aF0.0
aF-0.006043611382042293
aF-0.003869711692984582
aF0.011459880335562975
aF-0.004094635880092765
aF0.008552946336465046
aF0.005625188308066526
aF-0.009425739391644358
aF-0.004728396309340835
aF-0.017187754585142802
aF-0.0048801050837454785
aF-0.002658915132770694
aF0.016637481538945422
aF0.004345742149592445
aF0.0
aF-0.003927827916383605
aF-0.0025601609648390014
aF-0.042542137875687946
aF-0.0023042864154069536
aF-0.01275214289758322
aF0.0069334235471343155
aF-0.004179843026783775
aF-0.0304578857355757
aF-0.00498021837080417
aF-0.042859085715608265
aF0.008552946336465046
aF-0.004353568302421929
aF-0.0049435805731283715
aF0.0
aF0.013530539555178479
aF-0.0029289695739865554
aF-0.025817949214984225
aF-0.01194554732912833
aF-0.004656233773024556
aF0.0
aF0.027829708997761285
aF-0.0019377533610598556
aF0.003102096238608988
aF-0.004026613058584642
aF-0.067319427823547
aF0.0019016352773111147
aF-0.008014549845998458
aF-6.27541657319266e-05
aF-0.0031132368803214253
aF-0.004883677275400638
aF0.0030655393060207326
aF-0.013207542736037827
aF-0.0043025939951696155
aF-0.07316648750047725
aF0.003097321022407438
aF-0.003356130198891193
aF-0.00414413948700298
aF0.009199669778936702
aF-0.0043900228217158225
aF-0.016290657581734782
aF-0.0004822103624376687
aF-0.004696899385314589
aF-0.008474537050826804
aF-0.007828030815408659
aF0.00549459830484524
aF-0.016156842968656205
aF0.008219052989841736
aF-0.012082002440497218
aF-0.004248957847811238
aF-0.006950048335553231
aF-0.03375605537551332
aF0.0021863749696878097
aF-0.0026370903024480466
aF-0.03633414613551362
aF-0.004994110654856791
aF-0.03378253878346304
aF-0.004868526431664156
aF-0.004142540951469278
aF-0.008543556052720412
aF0.00785477043893834
aF-0.006637751020161354
aF-0.009179448027577565
aF-0.0008553057131438002
aF-0.0061006231820371236
aF-0.003178212081684246
aF-0.00457445188329668
aF-0.004218975687697891
aF-0.004834945440040816
aF-0.007633022343300518
aF-0.003298374330416819
aF-0.0024725027394605294
aF0.002782005418811333
aF-0.003066559197479436
aF0.0033914836830438223
aF-0.0021163330215216926
aF-0.016124153489856387
aF0.006528555252193432
aF0.005464053536743804
aF-0.00426120713485681
aF-0.006627136230388719
aF-0.0253259356655404
aF-0.01685119488939901
aF-0.029231059535873075
aF-0.017553972823972933
aF-0.004203605179922642
aF-0.001284899443265916
aF-0.004543350249971354
aF-0.0038948174009942695
aF-0.010432051057741322
aF-0.002652011642050396
aF-0.004665785230019736
aF0.0011245663866437878
aF-0.013158365471569535
aF-0.0036736312889836197
aF0.0
aF0.0
aF0.0071146658158326645
aF-0.004834945440040816
aF-0.004249682206854009
aF-0.004428261220872182
aF-0.004912076668994174
aF-0.013225542209778226
aF-0.0050869825540956455
aF-0.004778938823523858
aF-0.013403481958070108
aF0.01617119197490676
aF-0.00909071314731922
aF0.005354873355471218
aF0.007962345943624837
aF0.0
aF0.0025128089046493893
aF-0.0040767004980705925
aF-0.009563120374314107
aF-0.0036121532620626163
aF0.004550135491133835
aF-0.004203083101768348
aF-0.004566895554399053
aF0.005713737133197567
aF-0.008862806433892563
aF-0.0011702299300150498
aF-0.00382698401762281
aF-0.01564543034868705
aF-0.0057235157156589
aF-0.0022417980566876708
aF-0.00335125651234798
aF-0.004892360997937514
aF-0.005675514921544942
aF-0.002630322107776911
aF-0.0016714838269105657
aF0.0013906196165610913
aF-0.00441569242454743
aF-0.002763993028517334
aF-0.0075836367425605
aF-0.004949539459773662
aF-0.004695754820078817
aF-0.006691327511689936
aF0.0008668054968752597
aF0.01735513930769231
aF0.0
aF-0.0038452997921273138
aF-0.003180741065703231
aF-0.0048648439651305
aF0.0
aF-0.007207046111743989
aF-0.019856504318689513
aF0.0
aF-0.0024407985949021754
aF-0.004817961253050967
aF-0.006094502775593491
aF-0.0016234902758583347
aF0.008753988501024
aF0.0006329189292733524
aF0.0
aF0.005625822493710126
aF0.005611376528961411
aF-0.0065979444439237065
aF-0.002078779575265659
aF0.015087543785026278
aF-0.00290366015533294
aF0.002660624323954932
aF-0.0070492193383615755
aF-0.020731157234288495
aF-0.008317821341098304
aF0.0
aF-0.004122289448829157
aF0.011741444657164563
aF0.008607262375132582
aF-0.00426120713485681
aF-0.016720316822093302
aF-0.004664363085405339
aF0.0
aF0.005796162011277238
aF0.005613825132854443
aF-0.011265674748919008
aF-0.0033520878243988085
aF-0.00442505375397621
aF0.009087335880440453
aF-0.002438002020455945
aF0.00886339814458737
aF-0.0068236631605838
aF-0.008948537593636783
aF0.0
aF-0.0031229015043082375
aF-0.007559503073164454
aF-0.008870865525125018
aF-0.0032972050576134614
aF-0.03940205034788242
aF-0.00893919225598052
aF-0.0067890219118757296
aF-0.010899074118973246
aF-0.004664363085405339
aF-0.006093121737493235
aF0.0
aF0.0004186993300892741
aF-0.004800420801692853
aF-0.004327857673087064
aF-0.0019043543755111758
aF-0.08048615856366585
aF-0.01204050779512944
aF-0.010900357698781428
aF-0.008459403370771584
aF-0.00984113507444683
aF-0.003039406326779548
aF0.001143506500238073
aF0.0
aF0.00528470467777501
aF0.003450550959019501
aF-0.008206420768837779
aF-0.00031926772010434576
aF0.010476868704145827
aF-0.0032990945672937743
aF-0.0004548506346156195
aF-0.028430755342009693
aF-0.015879233573690255
aF-0.0023323031207775746
aF0.0
aF-0.003066559197479436
aF-0.004422204798467337
aF-0.03895570992827601
aF-0.019187423058115913
aF-0.004972229370222564
aF-0.004249682206854009
aF-0.008229073005865669
aF0.005858633962617964
aF-0.019075152426349756
aF-0.0029213540016076477
aF-0.004218975687697891
aF0.0
aF-0.002419252551299975
aF-0.008824640939226773
aF0.005563559876973677
aF0.0
aF-0.02068453173323428
aF0.026822614508398634
aF-0.011333633008193235
aF-0.006656085694861682
aF-0.0014821022394818561
aF-0.006348229928422434
aF-0.0027776523235535644
aF-0.003013827998076166
aF-0.004505271556327353
aF-0.001952298936302399
aF-0.0024420575339728257
aF-0.008743302737515977
aF0.015332552401033404
aF-0.016619555246174433
aF-0.011248935031094674
aF-0.0141761092602859
aF-0.03592285422193053
aF-0.019921931124746523
aF0.0
aF-0.013172110755357846
aF-0.0024817289037893852
aF-0.003969245350576929
aF-0.002763993028517334
aF0.0
aF-0.024182888490439057
aF-0.005788569427218776
aF0.0007334704603981224
aF-0.00913150038083856
aF-0.008353423574860743
aF-0.00777379390926848
aF-0.004327857673087064
aF-0.011031150749240933
aF-0.004800420801692853
aF0.007471471012206549
aF-0.01733749915307309
aF0.0033386107324634836
aF-0.004544848579331117
aF-0.012167257074821138
aF0.0
aF0.0
aF0.0071696517267010465
aF-0.013906631498560806
aF-0.0005201024607158245
aF-0.008360054356323903
aF-1.0150309898604827e-05
aF0.011656103026961663
aF-0.015892924657075435
aF0.012592898319755892
aF0.002933437019293807
aF-0.0018108812543053746
aF-0.001433160894652806
aF-0.007123653078365976
aF-0.004218975687697891
aF0.012081055624936103
aF0.0060889888236345694
aF0.0
aF0.005057393165726438
aF-0.04705831865586306
aF-0.013179302862870225
aF-0.028868496574013056
aF-0.00640660516215336
aF-0.0037668484044317786
aF-0.004817961253050967
aF-0.011823362055202156
aF-0.002858642632646533
aF0.0035280432570576593
aF-0.00436345149101648
aF-0.0019094967789866097
aF-0.02377353707854589
aF-0.008648282762741133
aF-0.0044294938340438215
aF-0.012637008033664252
aF-0.0044690586590373374
aF-0.0016212946424012864
aF-0.047314756331831735
aF-0.002959522687141566
aF0.004379380295084383
aF-0.012167257074821138
aF-0.003153311762958716
aF-0.005466593304814491
aF0.00034713521484144643
aF0.004015996966390411
aF-0.032228791481690416
aF0.00879274675165346
aF-0.0016547343922829827
aF-0.0020292688143786564
aF-0.0036875441029536994
aF-0.015702941171106842
aF0.005550284468841023
aF-0.008342291738745615
aF-0.004300076392334078
aF0.0023005284517879135
aF0.00948458208852669
aF0.005566904246393099
aF0.00497420884589801
aF-0.006710385550275329
aF-0.009712718609008367
aF-0.017849603232891045
aF-0.00699423102927813
aF0.0
aF-0.013489181608377403
aF-0.004321423647585737
aF-0.018537256192941477
aF0.0
aF-0.0048266600441804865
aF-0.0056272163157691435
aF-8.35631567951741e-06
aF-0.0072133386386431676
aF-0.0003808710036931279
aF-0.004202009802638364
aF0.0
aF-0.003412672780622459
aF0.003720897201746479
aF-0.008319246660344594
aF0.008944292692811063
aF-0.001209874653349337
aF-0.008374739671325768
aF-0.0014349436408290662
aF-0.026483452544019462
aF-0.006319653732028757
aF-0.006636929296368363
aF-0.007604221818055453
aF-0.007015326267848667
aF-0.00890925431757696
aF0.0
aF-0.004398613571079847
aF0.002708162478667634
aF-0.004589507912317733
aF-0.007740530453709522
aF-0.003969270863240481
aF-0.007702206261504623
aF-0.0019255867350415979
aF0.008961108420715689
aF-0.01645925971157208
aF-0.006354771010439587
aF0.0284518781822724
aF0.0041265873548902085
aF-0.0003307861233188793
aF-0.003124257528843553
aF-0.0030668206036129175
aF0.012335466268617545
aF-0.010493851479029388
aF-0.003385792786038978
aF-0.004490518522683728
aF-0.0017742471746171407
aF-0.002556120924137251
aF-0.004218975687697891
aF-0.0036875441029536994
aF-0.002959522687141566
aF-0.003732877116326012
aF-0.007204476084200496
aF-0.05011276588425375
aF-0.03209218739268221
aF-0.015801284898856363
aF-0.016306992432653232
aF-0.0026554746435539407
aF-0.03485987411524386
aF-0.00335125651234798
aF-0.008774230426882072
aF-0.010425725268080329
aF-0.004218975687697891
aF-0.0046568454703144555
aF-0.0036433399931416555
aF-0.0008818545370353299
aF-0.003581309418923793
aF0.006853973241854376
aF-0.008035542932380142
aF-0.0031386755247328835
aF0.003484696985499089
aF-0.005424938405863183
aF0.008425832475314088
aF-0.021873560497807212
aF-0.0076954393307681525
aF0.0
aF-0.004046363365864955
aF-0.004708838680294563
aF-0.016053993957446725
aF0.0
aF-0.00700003444486378
aF-0.01782019569821962
aF-0.0020329485836766063
aF0.0016723744860933061
aF0.0
aF0.0
aF0.008135586860461647
aF-0.015103649948756022
aF-0.01267214589496555
aF-0.0044397968697054415
aF0.01647792420746419
aF-0.014358983970147798
aF-0.0005751601068460699
aF-0.004181346609673873
aF-0.01847606926377028
aF-0.10879030846283433
aF-0.003918677051896692
aF-0.04851369585531478
aF0.00020071538267878663
aF-0.0032065893321518526
aF-0.017238311812954432
aF-0.0029171534659577555
aF-0.003545827725805006
aF-0.013379005699966322
aF-0.07641159109703405
aF-0.004218975687697891
aF-0.0036875441029536994
aF-0.0021264119211966484
aF-0.006017761747100902
aF0.0
aF-0.017219361389625366
aF-0.0791428269979489
aF-0.009744294871060525
aF0.0
aF-0.01708542548871718
aF0.0
aF-0.013081453009690689
aF-0.009076698075818772
aF-0.012412357222212032
aF-0.010429617644093338
aF-0.0045041392719072934
aF-0.011089935602337295
aF0.004457370459962611
aF-0.004168827766146314
aF-0.0048428982455889944
aF-0.0020899925117403963
aF0.0021674965090315045
aF-0.0033567634922891166
aF-0.014307520720002504
aF-0.050401481123003425
aF-0.002751477496076118
aF-0.004198904354257927
aF-0.003953086176041744
aF-0.017369537366802752
aF-0.002252224559893151
aF-0.004487776113695718
aF0.002834678094907281
aF-0.01873280289135817
aF-0.043928561137429344
aF-0.014472189775389367
aF-0.004472416273567013
aF0.002690884785660968
aF-0.012237707002712723
aF-0.008534250295177888
aF-0.05095094651469134
aF-0.00676358762574424
aF-0.020071504200678037
aF-0.004905733739704407
aF-0.004988125901090674
aF-0.0037897201642154823
aF-0.009265222152798399
aF-0.004953411590890264
aF-0.0036990933108290505
aF-0.001033927232978145
aF-0.003448329104443575
aF0.020899954975061526
aF-0.004693987291771879
aF-0.0003374424142396193
aF0.004426563717065466
aF-0.004098101402341529
aF-0.004462210582152291
aF-0.03616863682057401
aF-0.004487440793089979
aF-0.01345182459182272
aF7.68644874095132e-05
aF-0.01957239491968141
aF-0.00759320336447118
aF-0.0039878774074557114
aF0.005862098286558282
aF0.0002840318451202209
aF0.006336956915584188
aF-0.002994859423440541
aF-0.0010770293841707785
aF0.005672758976398878
aF0.0026435341892311194
aF-0.0024793443669973705
aF-0.002021183220556732
aF0.0030161595482425516
aF0.0026969766295933976
aF-0.00283767379202411
aF-0.03192940952422431
aF-0.0028340964062214544
aF-0.02442559139404989
aF-0.004446963669694824
aF-0.003976303041378958
aF-0.018688557463278098
aF-0.011550515217921583
aF-0.003547923215729214
aF-0.011696153650890547
aF-0.03213662088268447
aF0.00518280262324648
aF0.025628932814314984
aF-0.046576350900727474
aF-0.025130995299267097
aF0.014424938434988852
aF-0.004920682007267898
aF-0.013157026190949717
aF-0.004278215974393297
aF-0.030994798260811612
aF0.008207750704233688
aF-0.021450483571895596
aF-0.26841466851212115
aF0.00603762476098163
aF0.006390068662129679
aF0.00518280262324648
aF-0.00838145294306073
aF-0.019144696261514785
aF0.02245503905889057
aF-0.005797340815050172
aF-0.020166315576202
aF-0.0032773410923790038
aF0.019073943669003647
aF0.0
aF0.0064002856871493334
aF-0.008088505012941935
aF-0.0046272004107397015
aF-0.004410572867232415
aF-0.0030843172420707303
aF-0.02393945176974302
aF-0.016144680587868297
aF-0.04373107776116607
aF-0.014268674960468472
aF0.0
aF0.0
aF0.014751489600642508
aF-0.011437377137788267
aF-0.009985919521971183
aF-0.04214031890096256
aF-0.0764628340217211
aF-0.001266059690188679
aF0.002289768011629084
aF-0.009577795937516887
aF-0.003097202816550967
aF-0.0039400882459422
aF-0.0033156473963293367
aF-0.004472416273567013
aF0.005874599730088038
aF-0.0029213540016076477
aF-0.0004367230604478082
aF-0.004945720286235997
aF-0.015762813907019328
aF0.007834646486684652
aF-0.01699641045766685
aF-0.008240494589049015
aF-0.0020072240439814757
aF0.004526143896432467
aF-0.005932341007588141
aF-0.004110908885748396
aF-0.0035746170258022392
aF-0.007078777763792057
aF-0.0011702299300150498
aF-0.00020295487985031693
aF0.005158716762392579
aF-0.0075434173311142855
aF0.0007592318740741533
aF-0.0024309578217737294
aF-0.05695161472827595
aF0.008857735313753315
aF0.020361069959163453
aF-0.002821863790522182
aF0.02233020160800779
aF-0.0013730024838533468
aF-0.005544722692784534
aF5.0051699322662454e-05
aF-0.003846008266535951
aF-0.009327466929972078
aF-0.004777648147383175
aF-0.03875589702860168
aF-0.008181526648205591
aF-0.006963360442373482
aF0.006018463603139104
aF-0.0029831852434452433
aF-0.0008020034636132222
aF0.028440930049714
aF-0.011271230911106206
aF-0.022017641125070844
aF0.0022717698421410026
aF-0.022243211265793712
aF-0.040484248573552664
aF-0.003920290175769708
aF-0.004594064268114686
aF0.0
aF-0.005014872536022671
aF-0.00472205197739109
aF-0.0013077124230760355
aF-0.10865709343171782
aF-0.014173427510855367
aF-0.003829290210439773
aF-0.0049576437684535155
aF-0.003066559197479436
aF-0.00683633556776152
aF-0.01608633180891969
aF-0.040223215464645606
aF0.0013042215256092635
aF0.007153989806785111
aF-0.003995172246600141
aF-0.008946899757005952
aF-0.0122835106911685
aF-0.006928443028571212
aF0.002868045456718018
aF-0.0073590525841384785
aF0.019258054890032815
aF0.005205060379337031
aF-0.00400158959941384
aF-0.20754764343996188
aF0.005352560443771776
aF-0.007849077013328197
aF-0.00359191195460696
aF-0.03184819737632051
aF-0.07503988296162332
aF-0.011997117366368387
aF-0.0023033645148983883
aF-0.02260430254393593
aF0.0009831764374266323
aF0.008957788755180482
aF-0.005023768329302454
aF-0.01642952253345003
aF0.0
aF-0.0150756369346425
aF-0.009386447053077163
aF-0.004667686423089268
aF-0.026010099038511283
aF-0.12430554144835838
aF-0.0031294518083564795
aF-0.01644946706384515
aF-0.05598130646698891
aF-0.006345334192777705
aF-0.006897312861161456
aF-0.06437584279790756
aF0.005919252446204428
aF-0.004358718455047648
aF0.005199298566893725
aF-0.008204185925675025
aF-0.00335125651234798
aF0.0
aF-0.004004208727499318
aF-0.0036113214305117393
aF0.008223053239441183
aF-0.006594529398668943
aF-0.004840627513023471
aF-0.008563786394052374
aF0.0002240863380217127
aF-0.006976612580762636
aF-0.03322782929385699
aF-0.004800420801692853
aF-0.04449073783668924
aF-0.00897795381082676
aF-0.02512267353360114
aF-0.016693052915929363
aF-0.04715235838177079
aF-0.04782263336931332
aF-0.00909676865614828
aF-0.015892541620905032
aF-0.011316449101625242
aF-0.011993878888122759
aF0.0
aF-0.003128437912565672
aF-0.0014456039365207329
aF-0.004670840617010167
aF0.003271078899301259
aF-0.0033976480096747563
aF-0.23802557324406734
aF-0.006323124533162912
aF-0.004472580825112506
aF-0.004446368271064201
aF-0.004656303356741275
aF-0.024911660158752222
aF0.005679687846184991
aF-0.031202308580459692
aF-0.0029213540016076477
aF-0.002897393762418059
aF-0.005926126250845749
aF-0.01060297162314432
aF-0.003899537660780451
aF-0.024390308313463935
aF0.0018349030862874305
aF0.00604188399031385
aF0.0
aF-0.015192540377513818
aF-0.03796031593398291
aF0.0
aF-0.01020670628841099
aF-0.0015594485285885251
aF-0.011300929751750208
aF-0.017476647805515756
aF-0.006971782044247508
aF-0.013125997584511068
aF-0.005857232718382514
aF-0.10776745399794972
aF-0.008387402869756226
aF-0.001822618551708307
aF0.0003559460666435273
aF-0.08483152069719445
aF-0.013770585459128033
aF-0.07958656492742894
aF0.0013279300666590096
aF-0.008844721669047918
aF-0.07401850187880003
aF-0.07911180462590064
aF-0.013280129654165078
aF-0.0017883488898731115
aF0.005635807393265394
aF0.019321192324072003
aF0.01367561642822024
aF-0.0018996477856062267
aF-0.29516595282041774
aF-0.009268215332313997
aF0.007298696691547118
aF-0.0026720995485440867
aF0.0
aF-0.005069290125121791
aF-0.003899537660780451
aF-0.03225968884729059
aF-0.013748131001106702
aF-0.001627231475788188
aF-0.004783948403604088
aF0.0
aF0.00717307873330841
aF-0.06176724873259989
aF-0.008628104369622825
aF-0.0043327567525989425
aF-0.007627500682627566
aF0.0050777581461416395
aF-0.04543211175776363
aF-0.10525822432527654
aF-0.01090647274830078
aF-0.0022177524954430186
aF-0.0925835102492581
aF-0.027811442110729723
aF-0.027540247242576386
aF0.0
aF0.012197241766623181
aF-0.13252248798800667
aF-0.002509453495746897
aF-0.004090149796428927
aF-0.003618413599052173
aF-0.003892614367564693
aF0.00029187817334841177
aF-0.0033426536564069467
aF-0.010643603514426081
aF-0.0087870662201662
aF-0.004457987661585576
aF-0.013189513971789142
aF-0.004378965656087328
aF-0.011065893514298375
aF-0.002948407860427691
aF-0.0042495541141705515
aF0.000612357533654843
aF0.00557181335003252
aF-0.004342857248896174
aF0.0
aF-0.004161514115902484
aF0.0057333887960135475
aF-0.02843943556750339
aF-0.0025131871806421857
aF-0.00659655353095728
aF-0.008394781746586916
aF-0.008339481851893014
aF-0.035785333784678894
aF-0.010909154826893287
aF-0.0043900228217158225
aF0.005612717779783638
aF-0.0034010192755065194
aF0.010224118126680417
aF0.0
aF-0.004548465919099372
aF-0.004191494179078743
aF-0.0008741627736774419
aF-0.0007378472267256585
aF0.0
aF0.006337112740555448
aF-0.0049576437684535155
aF0.02281340043588588
aF-0.01603358157063681
aF0.0
aF-0.005579293968564979
aF0.010617240875672762
aF-0.01355463483609502
aF-0.006010211472507237
aF-0.021558016308012826
aF-0.008170470579010124
aF-0.0033543808020696734
aF-0.0031624476619108713
aF-0.022135508447755196
aF0.005684091740594215
aF0.0
aF0.006909046333202162
aF-0.004680219032869129
aF-0.0069298722255204115
aF0.0
aF0.003207660932198969
aF-0.014065559021487983
aF0.0
aF0.00518288411954962
aF0.00728998346205719
aF-0.00498325879343533
aF0.006265537085106476
aF-0.004548465919099372
aF-0.004893300675699655
aF-0.004342857248896174
aF-0.004405578873657005
aF-0.0301812293203652
aF-0.0019576099199860777
aF-0.031719389362237956
aF-0.004909225986015535
aF-0.016201052638629684
aF-0.005730021505022085
aF-0.004404978908582035
aF-0.0037862738706557764
aF0.007887419406545746
aF-0.004484991443614624
aF-0.008468458302724097
aF-0.009035567914626539
aF-0.004631956110081784
aF0.0
aF-0.05380706303903564
aF-0.0026245992953848386
aF-0.0053801974463535025
aF-0.04653828951447744
aF-0.004993687899647675
aF0.0
aF-0.010387758230680135
aF-0.003933167789882409
aF-0.0077123400582525346
aF0.001185436029939443
aF-0.013724361173813758
aF0.016087195199387526
aF-0.00316477456749542
aF-0.016492778943392468
aF-0.009819664533001565
aF0.003908564909221203
aF0.0033717109964476666
aF-0.005680577477800252
aF-0.0049552731783073746
aF0.005169462007241701
aF-0.0024746112805761524
aF-0.008182969852458706
aF0.0
aF0.006390068662129679
aF-0.005374232100177587
aF-0.002820995374363845
aF-0.03203661528310898
aF-0.006892227530466163
aF-0.05014416684209676
aF-0.0021072824537089535
aF0.0008996935630862877
aF-0.010740486559592158
aF-0.004903925872562952
aF-0.004583890171312181
aF-0.022548544893269372
aF-0.006798211189763328
aF-0.015571652117194272
aF-0.0034307846390570816
aF-0.004472580825112506
aF0.0010391392252253146
aF-0.0047715722416912885
aF0.00525407047464873
aF-0.02407251580085537
aF-0.015747638279142523
aF0.006429050322084615
aF-0.018314952482286307
aF-0.0027367092239755386
aF-0.003673441903609369
aF-0.0020558044027058427
aF-0.00672517217669177
aF-0.004198904354257927
aF-0.007717408386743206
aF0.014878271945928256
aF0.0
aF0.0
aF-0.0011719676660321716
aF-0.0022865829416299087
aF0.009658144877302913
aF-0.0014727007531897807
aF-0.004728290591974358
aF0.0
aF-0.00966811641706814
aF-0.004757914271065286
aF-0.024945433967471023
aF-0.009826954546934065
aF-0.008131847215321765
aF-0.016732722639191823
aF-0.003128841953612728
aF-0.009629511582046307
aF-0.004980525788243563
aF-0.0039683563141404725
aF-0.0042475285593670245
aF0.0
aF0.015866470087099904
aF-0.00785986741204848
aF0.00603762476098163
aF-0.027860843133436838
aF0.0
aF-0.003959672863735505
aF-0.00715006282170009
aF0.005412988849344167
aF-0.007458646963941358
aF0.0
aF-0.009169719066340693
aF-0.001543989539725954
aF0.0010405355011361885
aF-0.004708374769602378
aF-0.004012286802446562
aF0.00186755859028213
aF0.0
aF-0.0042495541141705515
aF0.0
aF0.00685911013562078
aF-0.011247120020961418
aF-0.012796839128865466
aF-0.01676644886436103
aF-0.004597524467871633
aF-0.004926929118140857
aF-0.009387064367901755
aF-0.003849740865866787
aF0.005384448454251513
aF-0.0038452997921273138
aF0.004039565941983007
aF0.005367334259846573
aF-0.001952298936302399
aF-0.08680761809543532
aF-0.019187423058115913
aF-0.00684704656605796
aF-0.001719820004488455
aF-0.008092465924809292
aF-0.008870865525125018
aF-0.004817961253050967
aF-0.002556120924137251
aF-0.01200324314559795
aF-1.2424289148359224
aF-0.31250337971804865
aF-0.007407010208229876
aF-0.030405405297413337
aF0.0
aF-0.0034307846390570816
aF0.005636051123255218
aF0.0036831241642895163
aF0.0006329189292733524
aF0.005563559876973677
aF-0.018314952482286307
aF-0.00715006282170009
aF-0.008005566072180965
aF0.0026449363809061153
aF-0.0037916500942180367
aF-0.016055191493383292
aF-0.0045602012212518465
aF-0.020318890490082214
aF0.0
aF-0.003629737028298149
aF-0.004455440075861683
aF-0.012551994074703587
aF-0.051894341478496475
aF-0.018770117994876004
aF-0.0033061497452040426
aF-0.00838145294306073
aF-0.000859442796251361
aF-0.0035049962902923026
aF-0.023919314353188472
aF0.006219744513427997
aF-0.0010662177051275123
aF-0.004667686423089268
aF-0.004870931625642466
aF-0.017770935499896803
aF-0.013511422936891589
aF0.00685911013562078
aF-0.001979327631732577
aF-0.03431364023902166
aF0.010641121574116997
aF0.011966968639991062
aF-0.004349259658538464
aF-0.006062881733288601
aF-0.000944311056511942
aF-0.004866728207308735
aF0.0
aF0.0
aF-0.00457445188329668
aF-0.011081050373619908
aF-0.0038931078746652337
aF-0.0041509949588826025
aF-0.004926929118140857
aF0.0006815215545798968
aF0.0
aF-0.0012053174277218874
aF-0.0016397756548405407
aF-0.023718921626043696
aF-0.028797171996255977
aF0.0
aF-0.013022107614464472
aF-0.007727929261646033
aF-0.04157409878724982
aF-0.0020899925117403963
aF-0.0032940950792397575
aF-0.01060297162314432
aF0.007621173066693262
aF-0.0014399447648579698
aF-0.013860512158075343
aF-0.003039406326779548
aF-0.0036113110431173325
aF-0.019513514192492615
aF-0.031048395670692033
aF-0.008917493662614394
aF-0.0050869825540956455
aF-0.009854643018495049
aF-0.007822675848380962
aF-0.02029466268574235
aF0.016637481538945422
aF-0.0036234016181626947
aF0.0
aF-0.004249682206854009
aF0.0023005284517879135
aF-0.00426120713485681
aF-0.003995296302996419
aF-0.004800420801692853
aF-0.004490518522683728
aF-0.007227524245493868
aF-0.0025850608186241174
aF-0.07715138440760533
aF-0.008151677314040833
aF-0.004473165317643317
aF-0.0029171534659577555
aF-0.004094635880092765
aF0.0021084954177837197
aF-0.004452591912481331
aF-0.016597331827673107
aF-0.00795300143451919
aF0.0
aF-0.013524616827397057
aF-0.0019094967789866097
aF-0.006929992354627514
aF-0.0005677556236377366
aF-0.0021072636617353903
aF0.005362086479500358
aF-0.004878560822671908
aF0.0060889888236345694
aF-0.002994859423440541
aF-0.07715138440760533
aF0.006283403012682586
aF-0.001137695884867922
aF-0.018505204383256514
aF-0.01253723235818725
aF-0.0050869825540956455
aF0.0014789800591658749
aF-0.00287964904124431
aF-0.004817961253050967
aF-0.16464891439017146
aF-0.007708499028888935
aF-0.007169770298582608
aF-0.0028877277459654163
aF-0.0029213540016076477
aF0.0053256902383744895
aF0.0
aF-0.002435578781619194
aF-0.007914653024052897
aF-0.0034562130622796923
aF-0.0048170185513870065
aF-0.0007506936652534203
aF0.0
aF0.0009351668177807948
aF-0.009431859011625729
aF-0.004444322664101928
aF-0.04653828951447744
aF-0.05598130646698891
aF-0.007930452730884708
aF0.001500581687235875
aF-0.004773729194338322
aF-0.011089935602337295
aF-0.020857484653051966
aF-0.0032773410923790038
aF-0.004269480946211302
aF-0.016464263489106904
aF-0.006928443028571212
aF0.01477319946751024
aF-0.012973822206736825
aF0.0
aF-0.003969270863240481
aF-0.016629492563326766
aF-0.013672532716861923
aF0.005179987480396776
aF-0.0019123307783100764
aF-0.011659747284887556
aF0.0
aF-0.006964515175014885
aF-0.024725689646944497
aF-0.03078405762714414
aF0.0
aF0.005090551275562887
aF-0.00335125651234798
aF-0.01562161223990884
aF0.0
aF-0.004094635880092765
aF0.0
aF-0.004670840617010167
aF-0.011207769905318108
aF0.0
aF-0.0018108812543053746
aF-0.009386646358098789
aF-0.002078779575265659
aF-0.02393945176974302
aF-0.006970639645317481
aF0.0
aF-0.018688557463278098
aF-0.016529181553488485
aF-0.059437849843624206
aF-0.025270488385820813
aF-0.059437849843624206
aF-0.01201082233618012
aF0.0
aF0.007249817196560604
aF-0.00984113507444683
aF0.0
aF-0.003745776223648893
aF-0.0037862738706557764
aF-0.003814660729449242
aF0.003925116475058214
aF-0.008326391044637275
aF-0.002512254224172901
aF-0.0034562130622796923
aF-0.005675514921544942
aF0.0
aF-0.02512267353360114
aF-0.011517359487380691
aF-0.0006113616167982092
aF-0.0045602012212518465
aF-0.004624272573279702
aF-0.004566895554399053
aF0.006336956915584188
aF0.0
aF-0.008604274788979266
aF-0.015640800462208802
aF-0.029332903395157563
aF0.002906350575775786
aF-0.013280129654165078
aF-0.002905081679351157
aF0.009658144877302913
aF-0.004521854786797459
aF0.0318318549643329
aF-0.0026920787303792867
aF-0.0025835812243776854
aF0.004014408858782433
aF0.005874599730088038
aF-0.003769925144963107
aF-0.012593477597654612
aF0.01179887498488217
aF-0.001457424098820167
aF0.0013306203079637363
aF-0.006551422830356
aF-0.004066023391593656
aF-1.0150309898604827e-05
aF-0.009380502254607672
aF-0.004569874971364205
aF-0.013627693574921076
aF-0.01087713598826091
aF-0.0023938977827552277
aF-0.004487440793089979
aF0.0
aF-0.0042651134209270684
aF-0.0005677556236377366
aF0.007621173066693262
aF-0.0032470059854139317
aF0.005377357400866177
aF-0.00335125651234798
aF-0.004628388872907232
aF-0.02260430254393593
aF-0.018865116647798143
aF-0.007788447410076973
aF-0.011301576680147344
aF-0.004849133275569551
aF-0.0035746170258022392
aF-0.007745209576156326
aF0.006219744513427997
aF0.002933437019293807
aF-0.013081453009690689
aF-0.007749390283373738
aF0.011685175158599065
aF0.005169462007241701
aF0.010224118126680417
aF-0.0024420575339728257
aF-0.2931749070461658
aF-0.011736426728897863
aF-0.0036121532620626163
aF-0.007570704035752981
aF0.0
aF-0.034671173208472815
aF0.011174001848097784
aF0.0
aF-0.005932341007588141
aF-0.013391355421511519
aF-0.011239127893184327
aF-0.010030191089377626
aF-0.018865116647798143
aF0.0
aF0.0053057363050065445
aF-0.02824524182554583
aF-0.001986535867108166
aF0.0
aF-0.014040366016019228
aF-0.003892614367564693
aF-0.0006697106139855634
aF-0.004285964526614833
aF-0.009416962921480167
aF0.01509550592285783
aF-0.01642952253345003
aF-0.011297700729329384
aF-0.00427459477055496
aF-0.010536759734565164
aF-0.027286880868755036
aF0.0015481041922658974
aF-0.0022665595366987536
aF-0.5719772628437464
aF0.006777919286018761
aF-0.002556338544847936
aF0.0
aF-0.0044508256377617204
aF-0.010636221748616358
aF-0.01357246426971932
aF-0.011878296495255434
aF0.00864799899385803
aF-0.010817688919482683
aF-0.016759169779774725
aF0.0015348268594644115
aF-0.010392949705185398
aF-0.004012286802446562
aF-0.014905790769047933
aF-0.035569269201888895
aF-0.01157625706297993
aF-0.0039567261694040115
aF-0.007777661009558666
aF-0.004125961036906877
aF-0.013204828933644655
aF0.0
aF0.0
aF-0.0007796784410211369
aF-0.004646450954301408
aF-0.018705672266819903
aF-0.049692947533831806
aF-0.005713198809276673
aF0.005544273897572806
aF-0.012224071329656624
aF0.011825147632057283
aF0.0018837980902237216
aF0.0
aF-0.004001487248015205
aF-0.003872411339637938
aF-0.0031229015043082375
aF0.005672939828531748
aF-0.0035591168181085563
aF-0.0015052954400171425
aF-0.004269077327688583
aF-0.0038452997921273138
aF0.011241621615710504
aF0.0
aF-0.013132736066092322
aF0.0015245312703160221
aF0.0
aF-0.00287964904124431
aF-0.0019377533610598556
aF0.0016341063703552566
aF-0.0029929197436208534
aF-0.009416962921480167
aF-0.004586083917784128
aF0.005772270049342863
aF0.0054569045758791
aF-0.025592814874818043
aF-0.00663875811032473
aF-0.02180532640412588
aF-0.022083459879209327
aF-0.01923311026929555
aF-0.01567594814421502
aF0.0
aF0.0007239913455590807
aF-0.004802251534740437
aF-0.005000825253907133
aF0.0
aF-0.05043208786937069
aF-0.019799924263783464
aF-0.0060865694328825805
aF-0.003564846519204361
aF-0.004490518522683728
aF-0.009442884228562605
aF0.0
aF-0.007716944087893262
aF-0.009821276322017314
aF0.0
aF-0.004571829561813346
aF-0.015036467055328434
aF-0.004866728207308735
aF0.0
aF-0.004187900320685998
aF0.0016068829311718762
aF-0.007969952656864463
aF0.01308779602769275
aF-0.0035049962902923026
aF-0.004758352627397604
aF-0.004646266503817355
aF-0.004461279074567817
aF0.0
aF0.0
aF0.0
aF-0.2200695944561567
aF0.0004921880449190886
aF-0.0019123307783100764
aF-0.003769109841548522
aF-0.007577465493417984
aF-0.0024253544144632656
aF0.017879771569809584
aF-0.009681746984726299
aF-0.0031229015043082375
aF-0.002232488961474949
aF-0.010141700563313755
aF-0.021187683398890114
aF0.0
aF0.008362363254119022
aF-0.001941643864396556
aF-0.002348693550152696
aF-0.0047197542055965585
aF-0.00848840654918065
aF-0.004117699649187821
aF-0.004817961253050967
aF-0.009361580594629753
aF-0.0026245992953848386
aF-0.0015486711870100688
aF-0.007940931112892041
aF-0.00442505375397621
aF-0.04973377132813927
aF0.00211550208235673
aF0.015544482737447194
aF0.005871625851364199
aF0.00245017459944003
aF-0.01192846169248396
aF-0.04658307792570143
aF-0.10078031778457675
aF-0.0005751601068460699
aF-0.0049576437684535155
aF-0.0049576437684535155
aF0.00037542118578943497
aF0.00181232842933574
aF-0.004490518522683728
aF-0.004569874971364205
aF-0.06214893058557466
aF0.0
aF-0.0037916500942180367
aF-0.008555685663194633
aF0.0
aF-0.0034244974152358157
aF-0.004451348319366046
aF-0.012650411146325806
aF-0.004996001111126487
aF-0.007833237666624466
aF-0.006643362108200679
aF-0.008086644116347038
aF-0.007028894254340715
aF0.0014789800591658749
aF0.0
aF0.0016752625347421822
aF-0.0016586405866326898
aF-0.04270526808988893
aF-0.020944362042822563
aF-0.004600210445558178
aF-0.004810577918752927
aF-0.0018791582544600432
aF-0.002483148599504925
aF-0.02261152738313755
aF-0.004758352627397604
aF0.0
aF-0.007383342508331408
aF-0.0034896089718940604
aF-0.011798949996496194
aF-0.0015017667236099687
aF-0.013412177932099147
aF0.005819334768338498
aF-0.0045602012212518465
aF-0.007153559654531253
aF0.007482105282057658
aF-0.02828167642423849
aF-0.008428022634888978
aF-0.00462530096487534
aF0.0
aF-0.003224630275490432
aF-0.0005090997617118315
aF0.0014495545611226991
aF-0.0026945149352833107
aF0.00586552324130603
aF-0.0037583165089200865
aF-0.00415253163077465
aF-0.006187020863652828
aF-0.00444726181167926
aF-0.004534208773672787
aF-0.02967822810693561
aF-0.0002475088522499464
aF0.0
aF-0.027927658966388956
aF-0.023399694206057555
aF-0.0173327287080473
aF-0.0549453742445126
aF-0.011195095041214569
aF-0.014105629487880971
aF-0.003180741065703231
aF0.013440655406730506
aF-0.004890061063481574
aF-0.004757914271065286
aF-0.0024253103181874945
aF-0.015046080944745306
aF-0.009614632762135042
aF-0.003972738189383369
aF-0.007434986212213122
aF-0.012493854481701972
aF-0.003450651953524048
aF-0.018005268289605414
aF0.0
aF-0.00564350308932508
aF0.0021084954177837197
aF0.0
aF0.0
aF-0.011345741114408165
aF-0.0020645328715433544
aF0.0010589157981221215
aF-0.016117484043375895
aF-0.004929204522087564
aF-0.0037930452845929908
aF0.000711544509047219
aF-0.004244896560180126
aF0.0
aF-0.030405405297413337
aF-0.0022665595366987536
aF-0.036783580220517254
aF-0.06578610805538958
aF0.0
aF0.0
aF0.0
aF-0.0032881442771821945
aF-0.004854218620313283
aF-0.04220773990805784
aF-0.0055894306457758515
aF-0.0048188756281181
aF-0.00482476896611234
aF-0.007436207132517434
aF-0.0049576437684535155
aF-0.009448599797764565
aF-0.04148030780010364
aF-0.00909122175861048
aF-0.008746498026533798
aF0.005491445497650215
aF-0.00426120713485681
aF-0.004198904354257927
aF-0.004349259658538464
aF-0.10001166430859765
aF-0.003869711692984582
aF-0.004126036622125513
aF-0.03146707003104488
aF0.0
aF-0.006551422830356
aF-0.004490518522683728
aF-0.016759169779774725
aF0.005871625851364199
aF-0.004404416662766475
aF-0.004432479258178896
aF-0.007570704035752981
aF-0.013819683915415342
aF0.005094509963839573
aF0.0
aF0.009658144877302913
aF0.0032047701952636924
aF-0.004078044835158625
aF-0.007708499028888935
aF0.0
aF-0.008198506273106925
aF-0.0021241469771888927
aF-0.025028407589019194
aF0.0005573045426019531
aF-0.012995522453586908
aF-0.07215352981094472
aF-0.0036307502952043157
aF-0.019722320250494953
aF-0.0022665595366987536
aF0.006017928965867179
aF-0.009045935299749553
aF-0.00287964904124431
aF-0.0043471723641286975
aF-0.004624272573279702
aF-0.019251639272171165
aF-0.006764605852815195
aF-0.008980906364569666
aF-0.019160015530406034
aF-0.005014872536022671
aF-0.11379988240379849
aF-0.016459401873404958
aF-0.003949608884329511
aF-0.008423171746513209
aF-0.004504058652521069
aF-0.009206217289718707
aF0.002189164957573521
aF-0.01071555742869269
aF0.00414075282990689
aF0.008074854932048011
aF0.0025323754469524667
aF0.006203427386780867
aF-0.007932701924626806
aF-0.005918480700095851
aF-0.0032946427387679673
aF-0.004783948403604088
aF-0.03410368342642564
aF-0.0042736964230514
aF-0.0031403194646074965
aF0.0007592318740741533
aF-0.010427826928717826
aF0.0009978052024558776
aF-0.004057937295549192
aF-0.01323794102252178
aF-0.004813612646586547
aF-0.021811313593715312
aF-0.0038542656309647197
aF-0.0020596956234169156
aF-0.05962367804746717
aF0.0
aF-0.013416326994270339
aF-0.004840989771719412
aF-0.00443323166412369
aF-0.012652701557273492
aF0.0007599998874201555
aF-0.002252224559893151
aF-0.0022137247690466287
aF-0.014040366016019228
aF0.0013306203079637363
aF-0.004306064678846057
aF-0.004893300675699655
aF0.0016562641831277137
aF-0.0024287432433963085
aF-0.00024256600005630874
aF-0.03263407576260539
aF0.005874599730088038
aF-0.01188715830322808
aF-0.004405429187530205
aF-0.0030373244423785905
aF0.003219906379263353
aF0.0014760779885026499
aF-0.004341787040447971
aF0.00728998346205719
aF0.006948348399384767
aF0.004132457543981969
aF-0.0038384619372550844
aF-0.021505911022350367
aF-0.004993687899647675
aF-0.0038975488263045055
aF-0.0027239814255793715
aF-0.004855820434817755
aF0.0
aF-0.09656310775752106
aF-0.002243747909597499
aF0.02579138088998304
aF-0.004564717626643965
aF-0.030678326743148687
aF-0.0015481603173906457
aF-0.0030491369491667986
aF-0.007227524245493868
aF-0.01217577085873677
aF-0.004452591912481331
aF-0.008149964229664814
aF-0.001617527575779384
aF-0.03451683893588244
aF0.005
aF-0.004910404895389219
aF-0.008075718944708727
aF-0.004910404895389219
aF-0.00264804727515737
aF0.0036960474253014504
aF-0.013363433712357143
aF-0.029733186257506837
aF-0.00684704656605796
aF-0.006991752466494337
aF0.0
aF-0.01955178934956389
aF-0.0028231429252814156
aF-0.022895154976522485
aF-0.00488060341893778
aF-0.0014214070896688769
aF-0.01253723235818725
aF-0.004307171605285704
aF-0.003944376296728166
aF-0.004890061063481574
aF-0.004709015236096261
aF-0.0026598907122047733
aF-0.004840989771719412
aF0.004900136605651936
aF0.0033351917664659727
aF0.005068110453620987
aF-0.027926528024469
aF-0.012825085136680533
aF-0.007433790573837029
aF-0.01193973020206822
aF-0.010536759734565164
aF-0.004490518522683728
aF0.0
aF-0.005816142553867815
aF-0.011659747284887556
aF-0.020372877908138312
aF-0.002858642632646533
aF-0.0092138669214167
aF-0.003714439794020109
aF-0.011948041826000103
aF0.0
aF-0.0132943488108124
aF-0.004789552397163702
aF-0.0011386118611911961
aF-0.006680459686156786
aF-0.003240672363256795
aF-0.0036234016181626947
aF0.000320698833909867
aF0.0
aF-0.00651407363953457
aF0.001431757066796199
aF-0.00754988172722316
aF-0.019971351753265004
aF-0.006787669152785384
aF-0.003669695382427658
aF-0.016417643567080493
aF-0.004628388872907232
aF-0.004103573510867293
aF-0.04788383865496645
aF0.0
aF-0.009635558660581953
aF0.0
aF-0.006688792312631622
aF-0.001719820004488455
aF-0.003969270863240481
aF-0.0022597853851337377
aF-0.00934455592717307
aF-0.01200324314559795
aF0.004229876762519614
aF-0.004187900320685998
aF-0.004881595561438544
aF-0.0024253544144632656
aF-0.004062181546126299
aF-0.0003104572409704971
aF0.006128934963956564
aF-0.007202864524862953
aF0.0
aF0.013564061532610328
aF0.012883977715421147
aF-0.03310710999928045
aF-0.004172962671851751
aF0.01760674895515815
aF-0.00579319545318871
aF0.0
aF-0.008851126119285836
aF-0.004140003005639706
aF-0.0043940502476844025
aF-0.01983041249149633
aF0.002737380901584342
aF0.0012592675596529747
aF-0.16464891439017146
aF0.0
aF-0.06515646746824375
aF-0.0120391957525291
aF0.006390068662129679
aF-0.024725689646944497
aF-0.10099913597170472
aF-0.031125110558728793
aF-0.004642463426869751
aF-0.0026612134178839973
aF-0.025894164611347314
aF-0.004534208773672787
aF0.0
aF-0.009035567914626539
aF0.0
aF-0.008265126347081958
aF0.0
aF-0.0049733705313156195
aF-0.024810364157919606
aF0.0036105959162637154
aF-0.0042475285593670245
aF-0.0038651217204124667
aF0.01322240555962746
aF0.003300886487504101
aF-0.004248957847811238
aF-0.002320280307089654
aF-0.005203834868826611
aF0.005057393165726438
aF-0.016316710631012248
aF-0.0014053440408807252
aF-0.0934068154804145
aF-0.004615834409435739
aF-0.007126645888992017
aF-0.003995296302996419
aF-0.003077904173528239
aF-0.0028015944871652857
aF0.0007473082744883222
aF-0.008434166310880906
aF-0.005936916244823023
aF-0.01948134110351823
aF-0.0038255480643910713
aF0.007240906569497388
aF0.004200666616651201
aF0.0
aF-0.00444726181167926
aF-0.011661040944585421
aF-0.0049576437684535155
aF-0.020932011112855798
aF-0.007177703540655306
aF0.0
aF0.006140452462185572
aF0.003898044269534328
aF0.0
aF-0.006842527276243339
aF-0.00436650506854048
aF-0.016701205798978394
aF0.0018135683262726788
aF0.0030238076081026727
aF-0.02228245806400594
aF-0.014206190415396468
aF-0.00442505375397621
aF-0.013461435985764275
aF-0.004148389338935747
aF-0.00047886341761481117
aF0.006747678519139277
aF0.0054569045758791
aF-0.0022417980566876708
aF-0.021667515303680152
aF-0.023132128303452508
aF-0.004703930885118708
aF-0.004758352627397604
aF0.0
aF-0.006551422830356
aF0.0029335974568217415
aF-0.004609906021515355
aF0.003008804996485249
aF0.0
aF0.0015122064753005171
aF-0.0021366108590001884
aF-0.002078779575265659
aF0.006047697803177643
aF0.0
aF0.0
aF-0.0018864216361271565
aF0.006298683266063078
aF-0.00427459477055496
aF-0.014839121076920718
aF0.005454458794864345
aF-0.03597639532279665
aF-0.04231002900885997
aF-0.006970639645317481
aF0.0
aF-0.00515818304396797
aF0.0
aF-0.002715165452610786
aF-0.002251856537484852
aF-0.012167039017334184
aF-0.0008763798016172264
aF-0.0042107755427505745
aF-0.004816194468002883
aF-0.004140003005639706
aF0.009647633117505845
aF-0.008698964367263154
aF-0.004602197362730722
aF-0.0045875354181524036
aF-0.003985603906232178
aF0.0055570585553835535
aF-0.012808565775187136
aF-0.013524616827397057
aF0.0
aF-0.01102812628881696
aF-0.009044523365072488
aF0.0
aF0.0010391392252253146
aF0.0025815752098200875
aF-0.010595790996700582
aF-0.004475956356540633
aF-0.01958660187285443
aF-0.029332903395157563
aF-0.004910404895389219
aF0.006283403012682586
aF-0.012825085136680533
aF-0.00620473049389708
aF0.005838616424956228
aF-0.004996001111126487
aF-0.0029213540016076477
aF0.009658144877302913
aF-0.004628388872907232
aF0.0
aF0.019445793546812692
aF0.0
aF-0.0075836367425605
aF-0.00849667739998431
aF-0.005635591322187734
aF-0.0049576437684535155
aF-0.001046432675786446
aF-0.0048188756281181
aF0.0
aF0.0010589157981221215
aF-0.004706056461042922
aF-0.0042001237653269356
aF0.0018607417383594334
aF-0.0029217967630065828
aF0.0
aF-0.08186063667637324
aF0.0
aF-0.0028877277459654163
aF-0.003892614367564693
aF-0.004368886738408773
aF-0.006798760402073777
aF-0.0043778504734912575
aF0.0
aF-0.018992351503764826
aF-0.003930875801806296
aF-0.0021210163167719297
aF-0.011402096702324883
aF-0.0028408143512343156
aF-0.011798949996496194
aF-0.0007665203296088616
aF0.006431390510710319
aF-0.023333795980768693
aF0.005094807745444416
aF0.0020048557658989418
aF-0.015969102968973442
aF-0.00462530096487534
aF-0.019046966863210092
aF0.014128286549044279
aF0.008356058292516878
aF-0.006744921985113758
aF0.0
aF0.0033630194545382144
aF0.00948458208852669
aF-0.006668128547702099
aF-0.01991098683768806
aF-0.0028877277459654163
aF-0.009386646358098789
aF-0.003066559197479436
aF-0.020699971394008074
aF-0.0032212928271879103
aF0.0
aF-0.009273741080294471
aF-0.00943034732485155
aF-0.004269077327688583
aF-0.004990050993374167
aF0.0
aF-0.02626059264628299
aF0.0
aF-0.0046085544249307945
aF-0.004989562530983061
aF-0.00287964904124431
aF-0.004544848579331117
aF-0.027557784305018318
aF0.007361858677693923
aF0.013985615034124066
aF0.0
aF-0.004996001111126487
aF-0.020841173661638773
aF0.00929359863379002
aF-0.00472205197739109
aF0.006637485945385776
aF-0.0022177524954430186
aF-0.004457638507101368
aF-0.002897393762418059
aF-0.01148683827137699
aF0.0
aF0.01885657025019465
aF0.0030585193053954585
aF0.004210089087568872
aF-0.009396199486625826
aF-0.018626251290520143
aF0.0036455304865148936
aF-0.004802251534740437
aF-0.002771174788965758
aF-0.004548465919099372
aF-0.03203116137727229
aF-0.03527457068834383
aF-0.003419315332730866
aF-0.0028231429252814156
aF-0.0065928159238331325
aF-0.008151677314040833
aF0.003961631498921007
aF-0.25619911419479346
aF-0.1705481616877373
aF-0.013602006662016379
aF-0.08145407736354536
aF0.005499862923494228
aF-0.002419252551299975
aF-0.0043035766035169655
aF0.007153989806785111
aF-0.040621272525505785
aF-0.0043952302392571575
aF-0.0014214070896688769
aF-0.010223841818233633
aF-0.00393321341441439
aF-0.003995296302996419
aF-0.005935834870067075
aF-0.010870797109202026
aF-0.0048170185513870065
aF0.00479300359773501
aF-0.009071524162840874
aF-0.007088094059357142
aF0.005481153702459675
aF0.000991234234577123
aF0.0
aF0.006948348399384767
aF-0.004773729194338322
aF-0.021988630472746795
aF0.0
aF-0.015699883698730203
aF-0.022464444348854487
aF-0.243976491041592
aF-0.009181934959144163
aF-0.004098101402341529
aF-0.008098100392582878
aF-0.01591243043192401
aF-0.003781365428726731
aF-0.0073702562254639595
aF0.0
aF-0.00388695065514164
aF-0.025270488385820813
aF0.0
aF0.0016144436451664699
aF-0.0016251515488548097
aF-0.0014602811372507374
aF0.0
aF-0.005199320176312283
aF-0.007557077720163164
aF-0.00795300143451919
aF-0.000933576834820804
aF-0.003346533172775884
aF-0.004687266052231196
aF-0.008677520520756356
aF0.005635807393265394
aF0.0
aF-0.003719842238868791
aF-0.016077541038174742
aF-0.004124922403347679
aF-0.004488579710527614
aF0.005651759011865274
aF-0.008604274788979266
aF-0.014179132033732732
aF0.00643469774966213
aF-0.023467704735711893
aF-0.0030240940610533396
aF-0.0022271526548003906
aF0.0074626456573850634
aF0.0009358058682554671
aF0.0
aF0.0
aF-0.003066559197479436
aF-0.0013838847013257717
aF-0.0049733705313156195
aF0.0
aF-0.01545279828504109
aF-0.004865831528536198
aF-0.004419608485857561
aF0.006352856749261059
aF-0.003450651953524048
aF-0.002905081679351157
aF0.00728998346205719
aF-0.003188715353171705
aF0.0017385552830431379
aF-0.028523852044487638
aF0.0013316096710021983
aF-0.02832303285859171
aF0.0046471174493191705
aF-0.013714356630160022
aF0.005280992566219178
aF-0.21877566702472162
aF0.0
aF-0.007856896693278242
aF-0.0004526864592605106
aF-0.01282823372075701
aF0.0
aF-0.004535570608602169
aF0.0013176283360037165
aF-0.052038715203416665
aF0.007171709857740121
aF0.0
aF-0.002105492095422886
aF-0.004509481161921125
aF-0.011239127893184327
aF-0.012973822206736825
aF-0.004241063804165583
aF-0.014608824018423597
aF-0.0016397756548405407
aF-0.0047635471983249475
aF-0.003949608884329511
aF0.005108718947244634
aF-0.022331894798718756
aF-0.03801835926119315
aF-0.004789552397163702
aF-0.008005566072180965
aF-0.006365047677262706
aF-0.028523852044487638
aF0.0
aF-0.009142988315568385
aF0.01509550592285783
aF-0.004252886990675037
aF-0.004583641479206752
aF0.004719008657829339
aF-0.014978715181785833
aF0.005611376528961411
aF0.0
aF-0.0038324730506198324
aF0.004039565941983007
aF0.002532852946747595
aF-0.0003133536528893595
aF0.0
aF-0.013989526590448456
aF-0.011358207686174588
aF0.0
aF-0.01556658268593264
aF-0.01564543034868705
aF0.0
aF0.0
aF-0.007700057939164118
aF-0.06214893058557466
aF0.0
aF-0.009061116151245286
aF-0.002078779575265659
aF-0.0042651134209270684
aF-0.034671173208472815
aF0.00728998346205719
aF-0.014393280472691686
aF-0.004800476197194514
aF-0.008250542604705926
aF-0.013849028656691784
aF-0.004459989754241841
aF-0.019002897378637227
aF0.007322874300313995
aF0.006390068662129679
aF0.0
aF-0.0057235157156589
aF-0.011639097935256009
aF0.007228659200589925
aF-0.004996001111126487
aF0.0
aF-0.01924583215263063
aF-0.028648472425764574
aF-0.0025850608186241174
aF-0.009442884228562605
aF-0.003066559197479436
aF-0.02151775509620672
aF-0.014186341188933988
aF-0.01634142806959477
aF-0.008615759463653914
aF-0.0029213540016076477
aF0.009647633117505845
aF-0.0046568454703144555
aF-0.004687266052231196
aF-0.011266224350458896
aF-0.018770117994876004
aF-0.00948182283005774
aF0.0019644767292138245
aF-0.009517077949553681
aF-0.003066559197479436
aF-0.03146227875279848
aF-0.032629726373218815
aF-0.006307707865846524
aF-0.004233829760961399
aF0.0
aF0.004885979363430689
aF-0.001439079947789526
aF-0.022114705401534915
aF-0.006991752466494337
aF-0.16175192731335614
aF-0.008863428281689232
aF-0.03078405762714414
aF-0.009635558660581953
aF-0.016616420848886395
aF-0.05349390610293287
aF-0.0031294518083564795
aF-0.0007573299324838516
aF-0.11759223204711666
aF-0.004840813391147802
aF0.007962345943624837
aF-0.007822675848380962
aF-0.00048791617489459286
aF-0.0077528910202284895
aF-0.013022107614464472
aF0.007482105282057658
aF-0.01222848684373202
aF-0.010659722705281465
aF-0.021624260273861187
aF-0.027860843133436838
aF0.0
aF-0.012205943737912447
aF0.0027788650619112016
aF-0.0012113013914419057
aF0.009658144877302913
aF0.0010357635618362827
aF-0.0014821022394818561
aF-0.004628388872907232
aF-0.008706436065366767
aF-0.019208435788917243
aF-0.01693034431570148
aF-0.00809344096609984
aF0.005377357400866177
aF-0.009183676044362973
aF0.00577825704406437
aF0.00779350511258259
aF-0.021622155918297487
aF-0.01847606926377028
aF0.006500952114139043
aF-0.007097130697155895
aF-0.009431859011625729
aF-0.014586764970407829
aF0.0
aF0.0
aF0.0012967628224293463
aF0.006980354387700711
aF-0.008022102581174667
aF0.00761197777832921
aF-0.006507492947463767
aF-0.004855820434817755
aF-0.008107628241898715
aF-0.0046568454703144555
aF-0.006354771010439587
aF-0.002959522687141566
aF-0.002858642632646533
aF-0.005879795318439077
aF-0.00468944465862627
aF0.02281340043588588
aF0.010486999677615861
aF0.00036935114273549066
aF-0.015308223001539058
aF-0.004599662307002611
aF-0.009380502254607672
aF-0.008506504210228227
aF-0.0073590525841384785
aF-0.006740379803575617
aF0.0
aF-0.0026945149352833107
aF0.007621173066693262
aF0.003428255789357146
aF-0.017725991550454633
aF-0.0025144357906462045
aF-0.008780436422893749
aF0.01179887498488217
aF-0.004269480946211302
aF-0.1468461365443082
aF0.0030133148991254733
aF-0.0047859268623120935
aF-0.0028150154801016903
aF-0.04514418630268567
aF-0.028430755342009693
aF-0.004646266503817355
aF-0.004313796359429448
aF-0.008607687826844474
aF-0.06958867767773884
aF-0.028765870354639303
aF-0.0019911721502797993
aF-0.00290366015533294
aF0.0
aF-0.00978172796024209
aF-0.010234715215506347
aF-0.0017853641691227419
aF-0.001941643864396556
aF-0.003872411339637938
aF-0.018104361616697574
aF0.0067502812080186825
aF-0.011389972697686448
aF-0.015156139483313891
aF-0.016922433685161272
aF-0.003253441402390551
aF-0.003842432775845206
aF-0.004816194468002883
aF0.018631590996022133
aF0.0
aF-0.0071044943939169046
aF0.0
aF-0.008648786240635024
aF-0.008648786240635024
aF-0.012895687786184466
aF-0.011756104012936024
aF0.005611376528961411
aF0.0
aF-0.004476868845403348
aF-0.0042739106132869435
aF-0.003781365428726731
aF-0.004816194468002883
aF-0.015824646192396846
aF0.003186409951189897
aF0.00905333173947792
aF-0.004569874971364205
aF0.0032558492916083576
aF-0.0034817644540184756
aF-0.0035262419346781915
aF-0.017528281216514802
aF-0.0038452997921273138
aF0.0
aF0.00111654949746394
aF-0.01032364706923526
aF-0.004394443263224095
aF0.008552946336465046
aF-0.004773729194338322
aF-0.016851599172256745
aF-0.004243997384566331
aF-0.004638751994806068
aF0.0070080571069572675
aF0.0
aF-0.041739375869626526
aF-0.0024617309659058697
aF-0.011642001591801059
aF-0.008092465924809292
aF-0.004579091326243943
aF0.0052617169243006235
aF-0.005753176117974087
aF-0.008224768174221067
aF-0.013059905950886202
aF-0.003180741065703231
aF0.0
aF0.00747234012750602
aF0.0
aF0.0
aF0.006962002821341833
aF-0.002399096179117174
aF0.0
aF-0.008815382296144147
aF-0.004840989771719412
aF0.0
aF0.00731545014125816
aF0.0
aF-0.004445310262333312
aF-0.003564846519204361
aF-0.004285964526614833
aF-0.0046568454703144555
aF-0.01338168759559504
aF-0.010595899508827224
aF-0.004893300675699655
aF0.0
aF-0.02582348974075085
aF-0.0020317590144174912
aF-0.016244896065350133
aF-0.0036875441029536994
aF0.00747234012750602
aF0.018778286809463633
aF-0.02405068085062606
aF-0.016629492563326766
aF-0.004407142651086978
aF-0.003077904173528239
aF-0.0026835717633918177
aF-0.008456903661781635
aF-0.008310822202457368
aF-0.003781365428726731
aF-0.0042520008439625575
aF-0.007149321672164581
aF-0.021743825512891703
aF0.006013019552254516
aF0.00747234012750602
aF-0.004758646183910938
aF-0.0046568454703144555
aF-0.004994110654856791
aF0.00560842993906663
aF0.005611376528961411
aF0.0021084954177837197
aF-0.002858642632646533
aF0.0
aF-0.004098121818961687
aF-0.0043900228217158225
aF-0.0041568826035239224
aF0.0067502812080186825
aF0.0
aF-0.007310072514951801
aF-0.008445360551315263
aF-0.011096742134754908
aF-0.011070716404361445
aF-0.012289041287985848
aF0.005090551275562887
aF-0.0024588269999291012
aF-0.004325393972267023
aF-0.004849133275569551
aF-0.015640800462208802
aF-0.004205733700290505
aF-0.0048129376656854475
aF-0.007356180893688195
aF-0.018284796853468194
aF0.006298683266063078
aF-0.00287964904124431
aF0.007320680944314363
aF-0.003781365428726731
aF0.013101243963432886
aF-0.004307171605285704
aF0.0015481041922658974
aF-0.0032940950792397575
aF-0.004280792104831874
aF-0.012149596753133391
aF-0.004972229370222564
aF-0.017355141898140997
aF-0.004289608716814299
aF-0.0025566725974896054
aF0.0053057363050065445
aF-0.006511964862107259
aF0.006219744513427997
aF-0.007731397401512545
aF-0.012473636970039115
aF-0.003180741065703231
aF-0.0038452997921273138
aF-0.002419252551299975
aF0.0
aF-0.034165105747653995
aF-0.003948681545558797
aF0.0053256902383744895
aF0.0051955223404277495
aF0.005179987480396776
aF0.0
aF0.0
aF-0.0004689900325193577
aF-0.0049525810571115604
aF-0.004131402033643615
aF-0.003385792786038978
aF-0.005480768357001363
aF-0.03531218238480123
aF-0.002846398847727051
aF-0.01418358847484522
aF-0.012180188575129291
aF-0.10543766095859575
aF-0.001137695884867922
aF-0.0043900228217158225
aF0.0021084954177837197
aF-0.004792863228111276
aF-0.011838470100275606
aF-0.0079632652908513
aF-0.004773729194338322
aF-0.004098121818961687
aF-0.0038452997921273138
aF-0.0046568454703144555
aF-0.007471967170910297
aF-0.006388606814141089
aF-0.03810548633710345
aF0.00198927352716749
aF-0.004905733739704407
aF-0.004310604679179394
aF-0.0049525810571115604
aF-0.003781365428726731
aF0.003989464241617958
aF-0.0037133684895336327
aF-0.007213415771012253
aF-0.012888926001854227
aF-0.004834945440040816
aF-0.0027239814255793715
aF-0.004615779063904888
aF0.0018191688140422758
aF0.006306057052904105
aF0.0
aF-0.026125045655071063
aF-0.01649463322731766
aF0.0
aF-0.006118000596785746
aF-0.021052741785673557
aF-0.004902524102666644
aF0.0
aF-0.010988562688183495
aF-0.007308839377055107
aF-0.06436513315670717
aF0.004916042777845019
aF-0.054858897058696045
aF0.00780421660551778
aF-0.1233539098578662
aF-0.004586842976036617
aF0.006618600026774513
aF-0.004398518592939884
aF-0.02715706154840368
aF-0.0012824099352236155
aF0.0064892663005212126
aF0.0
aF-0.1469476012713699
aF-0.004030132145465465
aF0.002813129167242015
aF-0.0070011205135258854
aF0.005398360405640314
aF0.012233427806638178
aF-0.16636358960773426
aF-0.026129749340199366
aF-0.014196448348356797
aF-0.03868787897385342
aF0.0069489888345997605
aF-0.15842436511913857
aF-0.0035885322049411506
aF-0.003945996832090248
aF-0.007738208932491138
aF-0.002504659759427365
aF-0.0024435600185675997
aF-0.007171123031986018
aF0.004650136040469706
aF-0.003782251960645191
aF-0.0044599732613644265
aF-0.016459847121366514
aF0.0013886999345742545
aF-0.002805482856630827
aF0.0010345452926166301
aF-0.06869601466788967
aF0.015147430943124053
aF0.0071146658158326645
aF0.00021362716470233996
aF-0.004653939630820319
aF-0.0044599732613644265
aF-0.001985875371017725
aF-0.0028486835229922986
aF-0.021971849719621198
aF-0.012641865759695172
aF-0.02342375946149734
aF-0.006951772561056954
aF0.008329344465109977
aF0.0
aF0.01870307678571721
aF0.007488707374877281
aF0.005673045077682514
aF-0.09014639192622274
aF0.005396462997519858
aF-0.019912181907452448
aF-0.05507940979812504
aF-0.003338102335168763
aF-0.006455322216626888
aF-0.0026169096278179363
aF-0.011636614909498813
aF-0.018239142787330898
aF-0.0003364544132423708
aF0.0006282639176807207
aF0.0
aF0.00887986374927831
aF0.0008945860006546374
aF-0.01664130079982362
aF-0.0005467256273419955
aF0.000821847328523747
aF-0.011792097814274805
aF-0.0030299937015053203
aF-0.006275911669057992
aF-0.033159966071420285
aF-0.004625730386909307
aF0.005874599730088038
aF0.008286801664457326
aF-0.003067962943237923
aF0.006580636941946977
aF-0.016072466209532944
aF-0.08157625851062997
aF-0.04733622302973222
aF0.007722946403515151
aF0.0
aF-0.027248996651944385
aF-0.009664335880989708
aF-0.008178678346761928
aF0.004435618540348029
aF0.0022410804967640053
aF0.00018563026814534197
aF-0.00011719087272857895
aF0.021206776376163722
aF-0.0043698313897885125
aF0.008312478723554697
aF-0.020775686154942064
aF-0.012137395904897558
aF-0.003384401713725391
aF-0.005011358176302729
aF-0.03357367356868621
aF-0.0014241369448171459
aF-0.017379911088765826
aF0.0007490728213386299
aF-0.005091270299432655
aF-0.001064957005386005
aF0.00036307696496298445
aF-0.0021586414137660936
aF0.0015284920534307915
aF-0.0015217940828456983
aF0.004876527123383832
aF-0.0012113013914419057
aF0.0
aF0.006535319249763553
aF0.0100143306022702
aF-0.0013375148925769507
aF-0.0018764112165545453
aF-0.003267555703246062
aF-0.011346625409054307
aF-0.001383872574810683
aF-0.10486332050086969
aF0.015513406951678665
aF0.0008069757815196081
aF0.013868035725582664
aF-0.007921801791346363
aF-0.008908683673875
aF0.0015456650092083523
aF-0.014917052254829134
aF-0.0018591994127685084
aF-0.002956926693343155
aF-0.0015437728587433274
aF-0.0016654651173175794
aF0.0
aF-0.001617527575779384
aF-0.0013431124521175266
aF0.008207893875205723
aF-0.0037244055833363424
aF0.0
aF-0.0015813376879371605
aF-0.02480756802722958
aF-0.02145007181136323
aF-0.0007484404537730386
aF-0.008032466522417606
aF-0.007858553283690804
aF-0.004125961036906877
aF0.0
aF-0.014309903754618932
aF-0.012746537162332008
aF0.005150999030624779
aF0.005970712372506565
aF-0.013293440001041006
aF0.007926905420457153
aF0.006069299552610771
aF0.0059210339095295515
aF0.0006074626488228339
aF0.002760908410131326
aF-0.016351881772005535
aF-0.002252224559893151
aF-0.013708101650109099
aF-0.004486586995960719
aF-0.0064501919106120294
aF-0.002769849876601559
aF-0.008455613743935718
aF-0.004538191436489024
aF-0.005681230661104961
aF-0.025294125032582014
aF-0.05734871599688123
aF-0.004390647176710411
aF-0.004077159299458361
aF0.00029609832864416945
aF0.02089884106992165
aF-0.029568171039061696
aF-0.0036907017497865074
aF-0.0035746170258022392
aF-0.02162487627002947
aF-0.002086251558656782
aF-0.001315008657079331
aF-0.0036297784325790327
aF-0.063332698281392
aF-0.004306705738477952
aF-0.004708838680294563
aF-0.0034817644540184756
aF-0.03325146786942138
aF-0.0029929197436208534
aF-0.0025790063176931183
aF-0.008867596819019602
aF-0.0036943388963632494
aF0.00390018029915014
aF-0.00309727324764306
aF-0.003951485390227134
aF-0.001017129539480288
aF0.00948458208852669
aF-0.0026169048267595044
aF-0.002846398847727051
aF-0.06050160967564858
aF-0.0026245992953848386
aF-0.026326010698396306
aF0.002597295016534944
aF-0.0030544842473665358
aF0.007970622670273144
aF-0.01824036437166728
aF0.0011200831350663375
aF-0.003157174199711062
aF-0.001508467868514497
aF-0.003339853689437272
aF0.007322874300313995
aF-0.005848709061974173
aF-0.0022417980566876708
aF-0.0023252467955030124
aF-0.0017568406062502288
aF0.005909366488485217
aF0.02271804187922143
aF-0.009749462928901761
aF0.008749375754906433
aF-0.00550489545857397
aF-0.0021465270264637913
aF-0.0019635323071060615
aF-0.002291334144357204
aF-0.0003374424142396193
aF-0.006027861971923357
aF0.0027873577510341497
aF-0.006984474316876072
aF-0.0022442381298518137
aF0.0006409214730812123
aF-0.03654984324006305
aF0.00948458208852669
aF-0.004432450010986783
aF-0.004101536573783998
aF-0.004651656124306354
aF-0.018525294828328646
aF0.002430193629888484
aF0.03486857773955898
aF0.0207260087131338
aF0.004926798774833808
aF0.0037394549370344038
aF-0.00025109660849703935
aF-0.008090321786638557
aF-0.14423549611529662
aF-0.0001302511605788051
aF-0.007426290740736035
aF-0.034558831196942745
aF-0.004446368271064201
aF-0.001508467868514497
aF-0.013078268492341654
aF0.007182384205142412
aF0.004001886275772858
aF-0.02334098605450847
aF-0.0034817644540184756
aF0.004223690365617542
aF0.013669130160120429
aF-0.0014241369448171459
aF-0.0070899919244014325
aF0.003858997687621192
aF0.006300389919686714
aF-0.009100741793310968
aF-0.002823963235032677
aF-0.00388601665137155
aF-0.004517285441023394
aF0.008949417561440097
aF-0.007825928920956602
aF0.008077823436144334
aF0.016898749098227365
aF-0.006523294637103006
aF-0.0033489523504146145
aF-0.006045909996400277
aF-0.005393682869447223
aF-0.004778938823523858
aF0.006282346179617271
aF-0.0026245992953848386
aF-0.031162271272237103
aF-0.011447445087886345
aF-0.000333725932099114
aF-0.02230710796767194
aF0.0026751535935250577
aF0.004295041699095678
aF0.0022168550169337884
aF-0.010314926685277614
aF-0.00850675626877047
aF-0.019360178431122654
aF0.0
aF0.005398489980854298
aF-0.006819702729872104
aF-0.004443602015761754
aF-0.012710868416686187
aF-0.0018842303777474546
aF0.009658144877302913
aF0.015280232484427201
aF-0.022932860072636507
aF0.005315238072222849
aF0.0
aF-0.020642709883369963
aF-0.019270398543483683
aF-0.023955958414179065
aF-0.009043522164506601
aF-0.008661255818424127
aF-0.002591673249365033
aF0.002697971719504619
aF-0.0012966856938373338
aF-0.00309727324764306
aF-0.013594461570005734
aF-0.0035861935982123387
aF-0.04822096672300356
aF-0.010015477214674115
aF0.0
aF-0.00460792711920187
aF-0.0003374424142396193
aF0.004482233058880368
aF0.004350771205923488
aF-0.002631740142939849
aF-0.014020729320089378
aF-0.0028482189797598423
aF-0.09625225159695419
aF-0.00808894347925269
aF-0.00441244559248837
aF-0.021016153889912424
aF0.0001994359719799705
aF-0.003310731955285795
aF-0.017100923581028948
aF-0.005472508526298716
aF-0.0033049360827859175
aF-0.004126284407413239
aF0.01343467447661358
aF-0.0018748075668380227
aF-0.012605609817955709
aF-0.01591627809342626
aF-0.00398148887653667
aF-0.004416257096618415
aF-0.008853129579406892
aF-0.0047684146259069134
aF-0.03941298219410226
aF0.007641841704097588
aF-0.0016841282263784431
aF-0.050834853286083836
aF0.005967248287402074
aF-0.009772686412295041
aF-0.002850918078623923
aF-0.007819346502724553
aF-0.004311460857353628
aF0.000441439732116512
aF0.0023324692225101876
aF-0.011727463424499462
aF-0.01755323634405025
aF-0.010839530119783891
aF0.00786583873818298
aF0.0069965358248134015
aF-0.002556120924137251
aF-0.0041942848852789885
aF0.008312478723554697
aF0.0052065775898656585
aF-0.007153400215521324
aF-0.0011825734495002453
aF0.0027744558516940615
aF-0.0014241369448171459
aF-0.021315630626003192
aF-0.0006487886643043394
aF-0.012593258408670954
aF0.00592421749544845
aF0.0017715803077377103
aF-0.025390655920817018
aF-0.002740594920953442
aF-0.0028231429252814156
aF0.002812911246855063
aF-0.04188633591947729
aF0.021976640367606777
aF0.010354883716114604
aF-0.009031597146061937
aF-0.003994539288854244
aF0.0
aF-0.010417979117779858
aF0.007924975640647411
aF-0.12047693178162619
aF0.0034686453221090957
aF-0.022846337119459475
aF0.007970622670273144
aF-0.0036680957777845114
aF-0.024614883431258075
aF-0.008537222008160606
aF0.01013780628882394
aF0.00014961853582889776
aF0.0
aF-0.1121396670353403
aF0.0056469717876458485
aF-0.022124224471546463
aF-0.005342907348826019
aF0.0076004803038126345
aF-0.0021465270264637913
aF0.007865506627196745
aF-0.001599946528510011
aF-0.038037414245628315
aF-0.009195619791343954
aF-0.002851865063877671
aF-0.017500596798163223
aF-0.002089214279988172
aF-0.0340386250509198
aF0.0005146903573033028
aF-0.02753624825097619
aF-0.012701583750500718
aF-0.003587449843406906
aF-0.02948248452733451
aF-0.004407142651086978
aF-0.010340441840721859
aF-0.014299778608156956
aF-0.06461152744112333
aF-0.0037007534865690105
aF-0.14688536388849374
aF0.002861606115528938
aF-0.015834262980451565
aF0.0
aF-0.00488060341893778
aF-0.0071784491078711226
aF0.0069965358248134015
aF-0.023901037346815486
aF-0.02927008366110691
aF0.00605164983960557
aF-0.0027583670073686208
aF0.009592083796233618
aF0.008051686923054302
aF0.00511024734891269
aF-0.0033489523504146145
aF0.011097263659646814
aF-0.02118897327796096
aF0.004025189729988653
aF-0.00896810495140679
aF-0.0015666150775058463
aF-0.0034896089718940604
aF-0.009527047310176775
aF-0.0026598907122047733
aF-0.09684910657552474
aF0.0018008722802494571
aF-0.0019243317079773016
aF-9.225060549336052e-05
aF-0.004241658252451414
aF-0.004893300675699655
aF0.006047697803177643
aF-0.013144520999715577
aF-0.009527738007603464
aF-0.006758028596597425
aF0.006741164839240336
aF0.006730689945509436
aF0.0009407916579994294
aF-0.0038887046072118405
aF-0.003899608661152324
aF-0.003332712438011325
aF0.010146522420963288
aF-0.04131399737069688
aF-0.0009007423679834809
aF-0.14296728348397292
aF0.004895161550295398
aF0.00212042714268221
aF-0.0038989450600674575
aF-0.0049576437684535155
aF-0.01070635972022545
aF-0.017654215049121874
aF-0.009690493734839186
aF-0.02332496180812743
aF-0.00654086502776364
aF-0.022278817620561216
aF-0.002536028174646271
aF-0.0047715722416912885
aF-0.01478325529970055
aF6.186411195590325e-06
aF-0.0005013453787713713
aF0.020107788968646387
aF0.005940164095932993
aF-0.16257758713294593
aF-0.0020573606098956186
aF-0.0033481179539289743
aF-0.028072059108318524
aF-0.003110241780455436
aF0.0008032550719610228
aF-0.0015378972907070442
aF-0.002279991225828646
aF0.003702693558807117
aF-0.004415988143995478
aF-0.004045279011213273
aF-0.008115020812121704
aF-0.0020751984345069134
aF0.00592430084541981
aF-0.002652563645012829
aF-0.0015693039277407028
aF-0.05620617168775782
aF-0.13245844144354815
aF0.005916063169662638
aF-0.031089160514774637
aF-0.004554527801190536
aF0.012974331098482804
aF-0.07471628354904186
aF-0.016223625018451877
aF0.0008711668890450258
aF-0.009540133047820842
aF0.008497368441016916
aF0.007397493479203996
aF-0.007099228449208453
aF-0.037169158910692536
aF0.0
aF-0.000933170317450647
aF0.007209784705497751
aF0.006608093590852789
aF-0.002846398847727051
aF-0.0075605466801100495
aF-0.040213822431259746
aF-0.00309727324764306
aF-0.009390192644882818
aF-0.004168062053712485
aF0.0
aF-0.01574871023016271
aF-0.003419315332730866
aF-0.00942169304192423
aF-0.010629939489654938
aF-0.004938858061754017
aF0.007924975640647411
aF-0.040812121382259876
aF-0.011220157659554168
aF-0.026200637585705098
aF-0.0022417980566876708
aF-0.027725023182305963
aF0.0026405665639785752
aF0.0018303384523085638
aF0.0012904677167383876
aF-0.004306705738477952
aF-0.024281527834493156
aF-0.25521280407702823
aF0.0028545606099221275
aF0.002925983421373588
aF0.0011494706139242757
aF-0.002044730960751433
aF0.0
aF0.002655780341966581
aF-0.0005201024607158245
aF-0.0041166056235256935
aF0.004504992089802542
aF-0.10034962343489656
aF-0.036598060186922986
aF-0.0006217070786087731
aF0.00046454233183334864
aF-0.0003374424142396193
aF-0.005139912564328615
aF0.003235036244550867
aF0.008736934524423791
aF-0.00015883142578877044
aF-0.0014919355036903787
aF0.0
aF-0.005651490439557006
aF0.0008096881649691549
aF-0.0007761432852390829
aF-0.0003374424142396193
aF-0.0037715281432377052
aF0.0
aF-0.012585425793891863
aF-0.0024406071651055104
aF-0.03187819953595386
aF-0.0064647160591477185
aF-0.004404978908582035
aF0.012853694914995892
aF-0.030982705487758416
aF0.0
aF-0.004275073320404269
aF0.012926321085000095
aF0.01275137488839406
aF-0.0038324730506198324
aF-0.007597330752522488
aF-0.007459523729795727
aF0.006875067803633077
aF-0.0986587442204908
aF-0.00651814305453279
aF0.0
aF-0.0008459863102840609
aF0.01657266027907242
aF-0.005242221591956979
aF0.009647633117505845
aF-0.003586289081110333
aF-0.0053433702858651025
aF0.0012874422208357158
aF-0.005603267279189367
aF-0.01802979381456476
aF0.0006491583307506966
aF-0.0021993069366181396
aF-0.008302527583117692
aF0.0018497005131443394
aF-0.021154034495268165
aF-0.0013420446408381201
aF-0.010951391281310783
aF-0.0024287432433963085
aF-0.007712716727012381
aF9.517936371336827e-05
aF0.005280992566219178
aF-0.0003374424142396193
aF-0.004569217482367145
aF-0.004429099585891165
aF-0.0003374424142396193
aF0.000554518094621247
aF0.00044032785380832896
aF0.0016833952531855874
aF-0.004435477463244334
aF-0.0029213540016076477
aF-0.10487347445322828
aF0.0
aF0.00542838267270765
aF-0.004306705738477952
aF-0.016625835919788366
aF-0.009979530911343206
aF-0.00309727324764306
aF-0.008994421902489442
aF-0.003990057859835687
aF-0.011217516515516321
aF-0.0028231429252814156
aF-0.003530936675903338
aF-0.001617527575779384
aF-0.003483327216870028
aF0.008090142761494256
aF-0.00912285649681832
aF0.007834646486684652
aF0.0
aF-0.0027168625725202066
aF-0.0031869025404867124
aF-0.01963493201291652
aF0.005709273253891886
aF-0.0029337748468101586
aF0.009658144877302913
aF-0.0002979912699487572
aF-0.006263553055256868
aF-0.02546249113169788
aF-0.15550414188715608
aF-0.0025276358420518335
aF-0.029590721136344977
aF-0.002221801007880877
aF-0.003387219250925098
aF-0.018134220652365227
aF-0.04142766062733785
aF-0.025562038510864596
aF0.023209901068407247
aF0.0028249706104866443
aF-0.0012951575663305293
aF-0.0038821381172934374
aF0.005792670303582663
aF0.007322874300313995
aF0.0
aF0.0006206820224391704
aF-0.0031256015705975627
aF-0.002358799924209797
aF-0.004887347245026662
aF-0.015936402184258208
aF-0.007926797523544494
aF-0.002982537318678203
aF-0.0012113013914419057
aF0.009352538003304085
aF-0.0007919116790752138
aF0.007668372998382781
aF-0.04912408505826758
aF-0.13467722852791789
aF-0.0032352679133266105
aF0.0
aF-0.003114838059007345
aF-0.01844425420260436
aF-0.0014539941989766664
aF-0.004031783934586324
aF0.004197061394148599
aF-0.010496519523822901
aF0.029569951284852403
aF-0.0676272837762801
aF-0.01801868176132403
aF-0.0059818759105243376
aF0.0
aF-0.006318428565186807
aF0.006338306519900165
aF-0.02126270994943521
aF-0.0036846261305077945
aF0.013123098785764193
aF-0.0032972050576134614
aF0.0052167845479302345
aF-0.0028788108861656594
aF0.005057393165726438
aF-0.008261569053042744
aF-0.006886733822976365
aF-0.041894017343752844
aF-0.0005791587972578528
aF-0.008411659924881318
aF0.007311979845470736
aF0.008483557278320526
aF-0.015593724711006356
aF-0.015942383115258564
aF0.010636004815388365
aF-0.00817053344967281
aF0.01886177050777896
aF-0.011521390588607398
aF-0.01813018073483358
aF0.006948348399384767
aF0.0062226703330904454
aF-0.0021779073964548865
aF-0.008999541704085814
aF-0.010008131801948622
aF0.007298696691547118
aF-0.11063822402910609
aF0.008949417561440097
aF0.010223529832754139
aF0.013316562358438672
aF0.014732483967471842
aF0.0006554106954026794
aF0.011030096449978332
aF-0.0027837184199810457
aF-0.0015943576765858525
aF-0.08153473158544751
aF-0.0003374424142396193
aF-0.03498911143265142
aF-0.021149924095587847
aF0.005539221766292179
aF-0.0009341681234020334
aF-0.07130319312629918
aF0.0
aF0.009778445615454557
aF-0.004680187975814406
aF0.008931989710819675
aF0.003438866204995304
aF-0.003084914765379156
aF-0.12793816985765455
aF0.0
aF-0.003801637559209069
aF0.0026516019607731754
aF0.005481153702459675
aF-0.040619318891428134
aF0.007326403979183294
aF-0.1529297824538961
aF-0.004584649642757897
aF-0.14562350681591113
aF-0.002630322107776911
aF0.009732309405541465
aF-0.026001816230682574
aF-0.06858288000662548
aF0.003529856815777283
aF-0.004901524342382018
aF-0.01004493925798213
aF-0.0031278837278786997
aF-0.007426675455071034
aF0.0031721591899677463
aF-0.028518837210306718
aF0.002404541885360685
aF-0.006177203330117947
aF0.005323012094592318
aF-0.0024746112805761524
aF-0.0028231429252814156
aF0.008744722205813231
aF-0.02421363630491776
aF-0.0012963371623827841
aF-0.0061527141233296955
aF-0.0008662984374550697
aF-0.06340814852837147
aF-0.011206757327032217
aF-0.017901613077595323
aF0.009647633117505845
aF-0.0033285760489430607
aF-0.05123890423973091
aF-0.027709986871686285
aF-0.08272920894428325
aF-0.012716950906486713
aF-0.0763541848368201
aF-0.012934663741220069
aF-0.061744735553709705
aF-0.027059268385616557
aF0.010374101617893072
aF-0.0062112284345509266
aF0.008382375840814726
aF-0.07587747142535942
aF-0.003291517877955963
aF-0.03221919730029573
aF-0.00388601665137155
aF-0.0029579542755899173
aF-0.0066936809743594426
aF-0.06075407067649
aF-0.01073820333158796
aF-0.004117699649187821
aF-0.0010452184802175984
aF-0.0009288409794307902
aF0.003289864392285094
aF-0.01522100278503451
aF-0.004988193024436816
aF-0.059371158638359525
aF-0.01696571235388528
aF0.013603100257260917
aF-0.010192515270720796
aF0.01231316943190228
aF0.0007147054484116858
aF-0.06450418561273531
aF-0.03692122058597947
aF-0.04764401209361668
aF-0.0014585684184749781
aF-0.02082356443138972
aF-0.026499584210610546
aF-0.018986097601551413
aF-0.007051812600667151
aF-0.06511204941470077
aF-0.012715337989212538
aF0.008307509469450159
aF0.0008151346667177501
aF0.006632126998585908
aF-0.02784770182264746
aF-0.008887188171452072
aF-0.014268416948342669
aF-0.06576424740063694
aF0.0004235779211471707
aF0.010942497841507044
aF-0.059890886744395085
aF-0.0007555421648021835
aF-0.00335603146162404
aF-0.043300174686780206
aF-0.018856696429485956
aF-0.029014546354117283
aF-0.01490011271959327
aF-0.004472416273567013
aF0.0017806556259170401
aF0.0032312895686395222
aF-0.05247287222734489
aF-0.002865764021084926
aF-0.060734621254661184
aF-0.0015292743146431542
aF-0.004583452573608142
aF-0.0035244301873327676
aF-0.0006612340882814788
aF-0.0014585684184749781
aF-0.02950351318905256
aF-0.0009288409794307902
aF-0.0027110788961328836
aF-0.051826412325616585
aF-0.010415834256365815
aF-0.10022213562270023
aF-0.008948558420832182
aF-0.05428826672002778
aF-0.007049478568944859
aF-0.07511871232271644
aF-0.043142269859921735
aF-0.004063846067253089
aF0.005742842855662702
aF-0.04051994893545442
aF-0.0027918910181619675
aF-0.07189496304906975
aF0.0
aF-0.05585019993820392
aF-0.013525030374899423
aF0.00628745724770521
aF-0.012093333371816185
aF-0.046829872815301314
aF-0.03331941855173881
aF-0.09436137748361927
aF0.006675078163398571
aF-0.022304501246304474
aF-0.022918728612012596
aF-0.0058703346772459
aF0.005869277016323708
aF0.021323120355298902
aF-0.0064562637957407965
aF0.007109912595462112
aF0.010244998732995877
aF-0.022760113788578108
aF-0.012232952947389072
aF-0.007391364310191258
aF-0.015918280542638052
aF-0.08141192891159306
aF0.010730637442660384
aF-0.03852561310678719
aF0.0
aF-0.006466593430118157
aF0.010319879486716121
aF-0.017462844971807487
aF-0.008719697852146524
aF-0.027951742014834385
aF0.006142037202804897
aF0.006088601337485509
aF-0.10169016782020951
aF-0.004566393562714191
aF-0.06453327340137524
aF0.0004582125241859551
aF0.017009707369560152
aF-0.05128418131541492
aF-0.00963129975346995
aF-0.01914876036260644
aF-0.007657329852582383
aF-0.034975238035729335
aF-0.006981571908480006
aF-0.0058511647925906215
aF-0.007988560414021238
aF0.007108968701818872
aF-0.0006612340882814788
aF-0.05130300913891922
aF-0.003962709530967568
aF-0.025685616726380218
aF-0.008002298655711549
aF-0.010637514255005377
aF-0.01060456293576922
aF-0.08767671871646704
aF-0.09857682212365436
aF-0.027036643990937536
aF-0.018736052912991644
aF0.005016057668788923
aF0.009960422546946244
aF-0.09922509620984189
aF-0.002138636374371449
aF-0.05633677295134768
aF-0.012828957834304168
aF-0.03915231747983377
aF0.005535414477351934
aF-0.040367683293788724
aF-0.06655452247619476
aF-0.00676960432942704
aF0.0012153219124430847
aF0.007445532691649924
aF-0.004404978908582035
aF0.00831971392222627
aF0.0023227545184675213
aF-0.03734056341779779
aF0.0
aF0.00345437210069826
aF-0.07873009614584635
aF-0.0182270142971003
aF0.005057393165726438
aF-0.0024980395541585416
aF-0.016860999347588133
aF0.0017137550152832018
aF-0.075273002294787
aF0.001500475018654576
aF-0.008489898352114764
aF-0.0019270532251820893
aF-0.06456615323332321
aF-0.08200007494365323
aF-0.01037533048326773
aF-0.005769985911795113
aF0.004683011267135837
aF-0.028938119913671925
aF-0.0020757380829939127
aF0.001629689245022524
aF-0.0029250229765982916
aF-0.06747158828936538
aF-0.046154313739841156
aF0.00255150072916302
aF-0.0378040985708613
aF0.006300644966387102
aF-0.001617527575779384
aF-0.020079238856169093
aF-0.011323007358575672
aF-0.023595029382614062
aF0.016783150241354447
aF-0.05674917835120749
aF0.010208073859835546
aF-0.002288543241345453
aF-0.007194732951857877
aF-0.004372434541844406
aF-0.07030265408066241
aF-0.003857147616907143
aF-0.0024691232403888643
aF-0.004591017890750137
aF0.0054824498313954815
aF-0.007713136598586986
aF-0.057648760706795255
aF-0.01133129383382035
aF-0.0102748778347657
aF0.0030609587609711146
aF-0.003541994690383894
aF-0.005085060894882521
aF-0.015416340894663889
aF-0.06645587876150545
aF-0.014961788540873863
aF-0.005959417162301512
aF0.0019363759354769114
aF-0.0019270532251820893
aF-0.03976206047058881
aF-0.033215805780955676
aF-0.018958504769310595
aF-0.008521763651422081
aF-5.236433023142928e-05
aF-0.0007632949804086431
aF-0.008292082472624843
aF-0.022561389188461345
aF-0.043300174686780206
aF-0.06993641094496415
aF0.01313649199115929
aF0.009416249591230701
aF-0.005480297249903743
aF0.0039834395705044675
aF-0.011398081590795016
aF-0.055261344303108584
aF0.0007494529107317279
aF-0.08032766239274419
aF-0.03084382506337434
aF-0.022730182876947527
aF-0.007150535576579511
aF-0.016003659796155877
aF-0.017996772658542312
aF-0.015828692391056495
aF0.010901572713659023
aF-0.08234918789709289
aF-0.0019270532251820893
aF-0.04348166109660753
aF-0.07066379453302427
aF0.002303360663462558
aF-0.01867322421967473
aF0.006427979631407185
aF-0.060521643038700425
aF0.01012061339198168
aF-0.00986379832477162
aF-0.01521972780253129
aF0.013618094272382086
aF0.008294438260456307
aF-0.0020192073434433023
aF0.00017938904418170586
aF0.0044800020186880835
aF-0.06500895147897646
aF-0.10459624169097924
aF-0.0038255480643910713
aF0.006477306093236805
aF0.009292495024936804
aF-0.002782004289865419
aF-0.014930090080486461
aF-0.007364729459717982
aF0.0022946728077912243
aF-0.0022865829416299087
aF-0.08313322527697367
aF0.005862098286558282
aF0.0021159059616476547
aF0.006540179634019481
aF-0.06500895147897646
aF-0.0008144250723146238
aF-0.007059083933693062
aF-0.010223786303072612
aF-0.012771584415796464
aF-0.0716099041998176
aF0.014331825805809533
aF-0.09923020522023561
aF-0.022302855444175866
aF-0.0015222628425558104
aF-0.07316221566582357
aF-0.004110322371168209
aF0.00032258899836750223
aF0.0001959947361679111
aF-0.005177778505544259
aF-0.10716802444955076
aF0.004097371366591473
aF-0.02269874812785658
aF-0.01114485774612638
aF-0.009783934368682147
aF-0.002255319226308146
aF-0.011811258229386994
aF-0.001617527575779384
aF0.0020838273924987448
aF-0.04705270303275671
aF0.0018653256504380885
aF-0.04962826966638649
aF0.0016789668460154986
aF-0.04674192852973984
aF0.00344454699539916
aF0.010282004335666037
aF0.004384822500295641
aF-0.012595848065896056
aF-0.002138636374371449
aF-0.009036775809034493
aF-0.027036643990937536
aF-0.002769849876601559
aF-0.05993341222507499
aF0.0009161252612989635
aF-0.035132670668984727
aF-0.0182270142971003
aF-0.03822444831748798
aF-0.006792687280477144
aF0.01679101135137498
aF0.001674442387048267
aF-0.06500895147897646
aF-0.00883261286265179
aF0.014493299019039263
aF-0.0033231239790362925
aF0.00340805343684736
aF-0.01758742300997473
aF0.00255150072916302
aF-0.008725795053117675
aF-0.00950334278131858
aF-0.07717217013224077
aF-0.01276925617050273
aF-0.0070544625603908015
aF-0.013221666532096065
aF-0.003504218922736798
aF-0.005854240154733603
aF0.0019516066511959492
aF-0.01753185074054721
aF-0.0017104876494378253
aF-0.001617527575779384
aF-0.06426731799950311
aF-0.004331369803096042
aF-0.001564770161520536
aF-0.015464199384462555
aF0.002653346502642509
aF0.008706363386731725
aF-0.018346455535441668
aF-0.00556331087208687
aF-0.001617527575779384
aF0.00811388547134451
aF-0.0022137139412370345
aF-0.003197497606060938
aF-0.009505419842017476
aF0.008858174600707036
aF0.007193848933477543
aF0.0011108643458854464
aF-0.0019271227329116446
aF-0.005266463606801229
aF0.0018414795923972667
aF-0.0790325689118831
aF-0.016826235998582486
aF0.006128934963956564
aF-0.039942711123395806
aF-0.006421532784851031
aF-0.001617527575779384
aF-0.001617527575779384
aF0.0
aF0.0
aF0.0
aF0.0
aF0.0
aF0.0
aF0.0
aF0.0
aF0.0
aF0.0
aF0.0
aF0.0
aF0.0
aF0.0
aF0.0
aF0.0
aF0.0
aF0.0
aF0.0
aF0.0
aF0.0
aF0.0
aF0.0
aF0.0
aF0.0
aF0.0
aF0.0
aF0.0
aF0.0
aF0.0
aF0.0
aF0.0
aF0.0
aF0.0
aF0.0
aF0.0
aF0.0
aF0.0
aF0.0
aF0.0
aF0.0
aF0.0
aF0.0
aF0.0
aF0.0
aF0.0
aF0.0
aF0.0
aF0.0
aF0.0
aF0.0
aF0.0
aF0.0
aF0.0
aF0.0
aF0.0
aF0.0
aF0.0
aF0.0
aF0.0
aF0.0
aF0.0
aF0.0
aF0.0
aF0.0
aF0.0
aF0.0
aF0.0
aF0.0
aF0.0
aF0.0
aF0.0
aF0.0
aF0.0
aF0.0
aF0.0
aF0.0
aF0.0
aF0.0
aF0.0
aF0.0
aF0.0
aF0.0
aF0.0
aF0.0
aF0.0
aF0.0
aF0.0
aF0.0
aF0.0
aF0.0
aF0.0
aF0.0
aF0.0
aF0.0
aF0.0
aF0.0
aF0.0
aF0.0
aF0.0
aF0.0
aF0.0
aF0.0
aF0.0
aF0.0
aF0.0
aF0.0
aF0.0
aF0.0
aF0.0
aF0.0
aF0.0
aF0.0
aF0.0
aF0.0
aF0.0
aF0.0
aF0.0
aF0.0
aF0.0
aF0.0
aF0.0
aF0.0
aF0.0
aF0.0
aF0.0
aF0.0
aF0.0
aF0.0
aF0.0
aF0.0
aF0.0
aF0.0
aF0.0
aF0.0
aF0.0
aF0.0
aF0.0
aF0.0
aF0.0
aF0.0
aF0.0
aF0.0
aF0.0
aF0.0
aF0.0
aF0.0
aF0.0
aF0.0
aF0.0
aF0.0
aF0.0
aF0.0
aF0.0
aF0.0
aF0.0
aF0.0
aF0.0
aF0.0
aF0.0
aF0.0
aF0.0
aF0.0
aF0.0
aF0.0
aF0.0
aF0.0
aF0.0
aF0.0
aF0.0
aF0.0
aF0.0
aF0.0
aF0.0
aF0.0
aF0.0
aF0.0
aF0.0
aF0.0
aF0.0
aF0.0
aF0.0
aF0.0
aF0.0
aF0.0
aF0.0
aF0.0
aF0.0
aF0.0
aF0.0
aF0.0
aF0.0
aF0.0
aF0.0
aF0.0
aF0.0
aF0.0
aF0.0
aF0.0
aF0.0
aF0.0
aF0.0
aF0.0
aF0.0
aF0.0
aF0.0
aF0.0
aF0.0
aF0.0
aF0.0
aF0.0
aF0.0
aF0.0
aF0.0
aF0.0
aF0.0
aF0.0
aF0.0
aF0.0
aF0.0
aF0.0
aF0.0
aF0.0
aF0.0
aF0.0
aF0.0
aF0.0
aF0.0
aF0.0
aF0.0
aF0.0
aF0.0
aF0.0
aF0.0
aF0.0
aF0.0
aF0.0
aF0.0
aF0.0
aF0.0
aF0.0
aF0.0
aF0.0
aF0.0
aF0.0
aF0.0
aF0.0
aF0.0
aF0.0
aF0.0
aF0.0
aF0.0
aF0.0
aF0.0
aF0.0
aF0.0
aF0.0
aF0.0
aF0.0
aF0.0
aF0.0
aF0.0
aF0.0
aF0.0
aF0.0
aF0.0
aF0.0
aF0.0
aF0.0
aF0.0
aF0.0
aF0.0
aF0.0
aF0.0
aF0.0
aF0.0
aF0.0
aF0.0
aF0.0
aF0.0
aF0.0
aF0.0
aF0.0
aF0.0
aF0.0
aF0.0
aF0.0
aF0.0
aF0.0
aF0.0
aF0.0
aF0.0
aF0.0
aF0.0
aF0.0
aF0.0
aF0.0
aF0.0
aF0.0
aF0.0
aF0.0
aF0.0
aF0.0
aF0.0
aF0.0
aF0.0
aF0.0
aF0.0
aF0.0
aF0.0
aF0.0
aF0.0
aF0.0
aF0.0
aF0.0
aF0.0
aF0.0
aF0.0
aF0.0
aF0.0
aF0.0
aF0.0
aF0.0
aF0.0
aF0.0
aF0.0
aF0.0
aF0.0
aF0.0
aF0.0
aF0.0
aF0.0
aF0.0
aF0.0
aF0.0
aF0.0
aF0.0
aF0.0
aF0.0
aF0.0
aF0.0
aF0.0
aF0.0
aF0.0
aF0.0
aF0.0
aF0.0
aF0.0
aF0.0
aF0.0
aF0.0
aF0.0
aF0.0
aF0.0
aF0.0
aF0.0
aF0.0
aF0.0
aF0.0
aF0.0
aF0.0
aF0.0
aF0.0
aF0.0
aF0.0
aF0.0
aF0.0
aF0.0
aF0.0
aF0.0
aF0.0
aF0.0
aF0.0
aF0.0
aF0.0
aF0.0
aF0.0
aF0.0
aF0.0
aF0.0
aF0.0
aF0.0
aF0.0
aF0.0
aF0.0
aF0.0
aF0.0
aF0.0
aF0.0
aF0.0
aF0.0
aF0.0
aF0.0
aF0.0
aF0.0
aF0.0
aF0.0
aF0.0
aF0.0
aF0.0
aF0.0
aF0.0
aF0.0
aF0.0
aF0.0
aF0.0
aF0.0
aF0.0
aF0.0
aF0.0
aF0.0
aF0.0
aF0.0
aF0.0
aF0.0
aF0.0
aF0.0
aF0.0
aF0.0
aF0.0
aF0.0
aF0.0
aF0.0
aF0.0
aF0.0
aF0.0
aF0.0
aF0.0
aF0.0
aF0.0
aF0.0
aF0.0
aF0.0
aF0.0
aF0.0
aF0.0
aF0.0
aF0.0
aF0.0
aF0.0
aF0.0
aF0.0
aF0.0
aF0.0
aF0.0
aF0.0
aF0.0
aF0.0
aF0.0
aF0.0
aF0.0
aF0.0
aF0.0
aF0.0
aF0.0
aF0.0
aF0.0
aF0.0
aF0.0
aF0.0
aF0.0
aF0.0
aF0.0
aF0.0
aF0.0
aF0.0
aF0.0
aF0.0
aF0.0
aF0.0
aF0.0
aF0.0
aF0.0
aF0.0
aF0.0
aF0.0
aF0.0
aF0.0
aF0.0
aF0.0
aF0.0
aF0.0
aF0.0
aF0.0
aF0.0
aF0.0
aF0.0
aF0.0
aF0.0
aF0.0
aF0.0
aF0.0
aF0.0
aF0.0
aF0.0
aF0.0
aF0.0
aF0.0
aF0.0
aF0.0
aF0.0
aF0.0
aF0.0
aF0.0
aF0.0
aF0.0
aF0.0
aF0.0
aF0.0
aF0.0
aF0.0
aF0.0
aF0.0
aF0.0
aF0.0
aF0.0
aF0.0
aF0.0
aF0.0
aF0.0
aF0.0
aF0.0
aF0.0
aF0.0
aF0.0
aF0.0
aF0.0
aF0.0
aF0.0
aF0.0
aF0.0
aF0.0
aF0.0
aF0.0
aF0.0
aF0.0
aF0.0
aF0.0
aF0.0
aF0.0
aF0.0
aF0.0
aF0.0
aF0.0
aF0.0
aF0.0
aF0.0
aF0.0
aF0.0
aF0.0
aF0.0
aF0.0
aF0.0
aF0.0
aF0.0
aF0.0
aF0.0
aF0.0
aF0.0
aF0.0
aF0.0
aF0.0
aF0.0
aF0.0
aF0.0
aF0.0
aF0.0
aF0.0
aF0.0
aF0.0
aF0.0
aF0.0
aF0.0
aF0.0
aF0.0
aF0.0
aF0.0
aF0.0
aF0.0
aF0.0
aF0.0
aF0.0
aF0.0
aF0.0
aF0.0
aF0.0
aF0.0
aF0.0
aF0.0
aF0.0
aF0.0
aF0.0
aF0.0
aF0.0
aF0.0
aF0.0
aF0.0
aF0.0
aF0.0
aF0.0
aF0.0
aF0.0
aF0.0
aF0.0
aF0.0
aF0.0
aF0.0
aF0.0
aF0.0
aF0.0
aF0.0
aF0.0
aF0.0
aF0.0
aF0.0
aF0.0
aF0.0
aF0.0
aF0.0
aF0.0
aF0.0
aF0.0
aF0.0
aF0.0
aF0.0
aF0.0
aF0.0
aF0.0
aF0.0
aF0.0
aF0.0
aF0.0
aF0.0
aF0.0
aF0.0
aF0.0
aF0.0
aF0.0
aF0.0
aF0.0
aF0.0
aF0.0
aF0.0
aF0.0
aF0.0
aF0.0
aF0.0
aF0.0
aF0.0
aF0.0
aF0.0
aF0.0
aF0.0
aF0.0
aF0.0
aF0.0
aF0.0
aF0.0
aF0.0
aF0.0
aF0.0
aF0.0
aF0.0
aF0.0
aF0.0
aF0.0
aF0.0
aF0.0
aF0.0
aF0.0
aF0.0
aF0.0
aF0.0
aF0.0
aF0.0
aF0.0
aF0.0
aF0.0
aF0.0
aF0.0
aF0.0
aF0.0
aF0.0
aF0.0
aF0.0
aF0.0
aF0.0
aF0.0
aF0.0
aF0.0
aF0.0
aF0.0
aF0.0
aF0.0
aF0.0
aF0.0
aF0.0
aF0.0
aF0.0
aF0.0
aF0.0
aF0.0
aF0.0
aF0.0
aF0.0
aF0.0
aF0.0
aF0.0
aF0.0
aF0.0
aF0.0
aF0.0
aF0.0
aF0.0
aF0.0
aF0.0
aF0.0
aF0.0
aF0.0
aF0.0
aF0.0
aF0.0
aF0.0
aF0.0
aF0.0
aF0.0
aF0.0
aF0.0
aF0.0
aF0.0
aF0.0
aF0.0
aF0.0
aF0.0
aF0.0
aF0.0
aF0.0
aF0.0
aF0.0
aF0.0
aF0.0
aF0.0
aF0.0
aF0.0
aF0.0
aF0.0
aF0.0
aF0.0
aF0.0
aF0.0
aF0.0
aF0.0
aF0.0
aF0.0
aF0.0
aF0.0
aF0.0
aF0.0
aF0.0
aF0.0
aF0.0
aF0.0
aF0.0
aF0.0
aF0.0
aF0.0
aF0.0
aF0.0
aF0.0
aF0.0
aF0.0
aF0.0
aF0.0
aF0.0
aF0.0
aF0.0
aF0.0
aF0.0
aF0.0
aF0.0
aF0.0
aF0.0
aF0.0
aF0.0
aF0.0
aF0.0
aF0.0
aF0.0
aF0.0
aF0.0
aF0.0
aF0.0
aF0.0
aF0.0
aF0.0
aF0.0
aF0.0
aF0.0
aF0.0
aF0.0
aF0.0
aF0.0
aF0.0
aF0.0
aF0.0
aF0.0
aF0.0
aF0.0
aF0.0
aF0.0
aF0.0
aF0.0
aF0.0
aF0.0
aF0.0
aF0.0
aF0.0
aF0.0
aF0.0
aF0.0
aF0.0
aF0.0
aF0.0
aF0.0
aF0.0
aF0.0
aF0.0
aF0.0
aF0.0
aF0.0
aF0.0
aF0.0
aF0.0
aF0.0
aF0.0
aF0.0
aF0.0
aF0.0
aF0.0
aF0.0
aF0.0
aF0.0
aF0.0
aF0.0
aF0.0
aF0.0
aF0.0
aF0.0
aF0.0
aF0.0
aF0.0
aF0.0
aF0.0
aF0.0
aF0.0
aF0.0
aF0.0
aF0.0
aF0.0
aF0.0
aF0.0
aF0.0
aF0.0
aF0.0
aF0.0
aF0.0
aF0.0
aF0.0
aF0.0
aF0.0
aF0.0
aF0.0
aF0.0
aF0.0
aF0.0
aF0.0
aF0.0
aF0.0
aF0.0
aF0.0
aF0.0
aF0.0
aF0.0
aF0.0
aF0.0
aF0.0
aF0.0
aF0.0
aF0.0
aF0.0
aF0.0
aF0.0
aF0.0
aF0.0
aF0.0
aF0.0
aF0.0
aF0.0
aF0.0
aF0.0
aF0.0
aF0.0
aF0.0
aF0.0
aF0.0
aF0.0
aF0.0
aF0.0
aF0.0
aF0.0
aF0.0
aF0.0
aF0.0
aF0.0
aF0.0
aF0.0
aF0.0
aF0.0
aF0.0
aF0.0
aF0.0
aF0.0
aF0.0
aF0.0
aF0.0
aF0.0
aF0.0
aF0.0
aF0.0
aF0.0
aF0.0
aF0.0
aF0.0
aF0.0
aF0.0
aF0.0
aF0.0
aF0.0
aF0.0
aF0.0
aF0.0
aF0.0
aF0.0
aF0.0
aF0.0
aF0.0
aF0.0
aF0.0
aF0.0
aF0.0
aF0.0
aF0.0
aF0.0
aF0.0
aF0.0
aF0.0
aF0.0
aF0.0
aF0.0
aF0.0
aF0.0
aF0.0
aF0.0
aF0.0
aF0.0
aF0.0
aF0.0
aF0.0
aF0.0
aF0.0
aF0.0
aF0.0
aF0.0
aF0.0
aF0.0
aF0.0
aF0.0
aF0.0
aF0.0
aF0.0
aF0.0
aF0.0
aF0.0
aF0.0
aF0.0
aF0.0
aF0.0
aF0.0
aF0.0
aF0.0
aF0.0
aF0.0
aF0.0
aF0.0
aF0.0
aF0.0
aF0.0
aF0.0
aF0.0
aF0.0
aF0.0
aF0.0
aF0.0
aF0.0
aF0.0
aF0.0
aF0.0
aF0.0
aF0.0
aF0.0
aF0.0
aF0.0
aF0.0
aF0.0
aF0.0
aF0.0
aF0.0
aF0.0
aF0.0
aF0.0
aF0.0
aF0.0
aF0.0
aF0.0
aF0.0
aF0.0
aF0.0
aF0.0
aF0.0
aF0.0
aF0.0
aF0.0
aF0.0
aF0.0
aF0.0
aF0.0
aF0.0
aF0.0
aF0.0
aF0.0
aF0.0
aF0.0
aF0.0
aF0.0
aF0.0
aF0.0
aF0.0
aF0.0
aF0.0
aF0.0
aF0.0
aF0.0
aF0.0
aF0.0
aF0.0
aF0.0
aF0.0
aF0.0
aF0.0
aF0.0
aF0.0
aF0.0
aF0.0
aF0.0
aF0.0
aF0.0
aF0.0
aF0.0
aF0.0
aF0.0
aF0.0
aF0.0
aF0.0
aF0.0
aF0.0
aF0.0
aF0.0
aF0.0
aF0.0
aF0.0
aF0.0
aF0.0
aF0.0
aF0.0
aF0.0
aF0.0
aF0.0
aF0.0
aF0.0
aF0.0
aF0.0
aF0.0
aF0.0
aF0.0
aF0.0
aF0.0
aF0.0
aF0.0
aF0.0
aF0.0
aF0.0
aF0.0
aF0.0
aF0.0
aF0.0
aF0.0
aF0.0
aF0.0
aF0.0
aF0.0
aF0.0
aF0.0
aF0.0
aF0.0
aF0.0
aF0.0
aF0.0
aF0.0
aF0.0
aF0.0
aF0.0
aF0.0
aF0.0
aF0.0
aF0.0
aF0.0
aF0.0
aF0.0
aF0.0
aF0.0
aF0.0
aF0.0
aF0.0
aF0.0
aF0.0
aF0.0
aF0.0
aF0.0
aF0.0
aF0.0
aF0.0
aF0.0
aF0.0
aF0.0
aF0.0
aF0.0
aF0.0
aF0.0
aF0.0
aF0.0
aF0.0
aF0.0
aF0.0
aF0.0
aF0.0
aF0.0
aF0.0
aF0.0
aF0.0
aF0.0
aF0.0
aF0.0
aF0.0
aF0.0
aF0.0
aF0.0
aF0.0
aF0.0
aF0.0
aF0.0
aF0.0
aF0.0
aF0.0
aF0.0
aF0.0
aF0.0
aF0.0
aF0.0
aF0.0
aF0.0
aF0.0
aF0.0
aF0.0
aF0.0
aF0.0
aF0.0
aF0.0
aF0.0
aF0.0
aF0.0
aF0.0
aF0.0
aF0.0
aF0.0
aF0.0
aF0.0
aF0.0
aF0.0
aF0.0
aF0.0
aF0.0
aF0.0
aF0.0
aF0.0
aF0.0
aF0.0
aF0.0
aF0.0
aF0.0
aF0.0
aF0.0
aF0.0
aF0.0
aF0.0
aF0.0
aF0.0
aF0.0
aF0.0
aF0.0
aF0.0
aF0.0
aF0.0
aF0.0
aF0.0
aF0.0
aF0.0
aF0.0
aF0.0
aF0.0
aF0.0
aF0.0
aF0.0
aF0.0
aF0.0
aF0.0
aF0.0
aF0.0
aF0.0
aF0.0
aF0.0
aF0.0
aF0.0
aF0.0
aF0.0
aF0.0
aF0.0
aF0.0
aF0.0
aF0.0
aF0.0
aF0.0
aF0.0
aF0.0
aF0.0
aF0.0
aF0.0
aF0.0
aF0.0
aF0.0
aF0.0
aF0.0
aF0.0
aF0.0
aF0.0
aF0.0
aF0.0
aF0.0
aF0.0
aF0.0
aF0.0
aF0.0
aF0.0
aF0.0
aF0.0
aF0.0
aF0.0
aF0.0
aF0.0
aF0.0
aF0.0
aF0.0
aF0.0
aF0.0
aF0.0
aF0.0
aF0.0
aF0.0
aF0.0
aF0.0
aF0.0
aF0.0
aF0.0
aF0.0
aF0.0
aF0.0
aF0.0
aF0.0
aF0.0
aF0.0
aF0.0
aF0.0
aF0.0
aF0.0
aF0.0
aF0.0
aF0.0
aF0.0
aF0.0
aF0.0
aF0.0
aF0.0
aF0.0
aF0.0
aF0.0
aF0.0
aF0.0
aF0.0
aF0.0
aF0.0
aF0.0
aF0.0
aF0.0
aF0.0
aF0.0
aF0.0
aF0.0
aF0.0
aF0.0
aF0.0
aF0.0
aF0.0
aF0.0
aF0.0
aF0.0
aF0.0
aF0.0
aF0.0
aF0.0
aF0.0
aF0.0
aF0.0
aF0.0
aF0.0
aF0.0
aF0.0
aF0.0
aF0.0
aF0.0
aF0.0
aF0.0
aF0.0
aF0.0
aF0.0
aF0.0
aF0.0
aF0.0
aF0.0
aF0.0
aF0.0
aF0.0
aF0.0
aF0.0
aF0.0
aF0.0
aF0.0
aF0.0
aF0.0
aF0.0
aF0.0
aF0.0
aF0.0
aF0.0
aF0.0
aF0.0
aF0.0
aF0.0
aF0.0
aF0.0
aF0.0
aF0.0
aF0.0
aF0.0
aF0.0
aF0.0
aF0.0
aF0.0
aF0.0
aF0.0
aF0.0
aF0.0
aF0.0
aF0.0
aF0.0
aF0.0
aF0.0
aF0.0
aF0.0
aF0.0
aF0.0
aF0.0
aF0.0
aF0.0
aF0.0
aF0.0
aF0.0
aF0.0
aF0.0
aF0.0
aF0.0
aF0.0
aF0.0
aF0.0
aF0.0
aF0.0
aF0.0
aF0.0
aF0.0
aF0.0
aF0.0
aF0.0
aF0.0
aF0.0
aF0.0
aF0.0
aF0.0
aF0.0
aF0.0
aF0.0
aF0.0
aF0.0
aF0.0
aF0.0
aF0.0
aF0.0
aF0.0
aF0.0
aF0.0
aF0.0
aF0.0
aF0.0
aF0.0
aF0.0
aF0.0
aF0.0
aF0.0
aF0.0
aF0.0
aF0.0
aF0.0
aF0.0
aF0.0
aF0.0
aF0.0
aF0.0
aF0.0
aF0.0
aF0.0
aF0.0
aF0.0
aF0.0
aF0.0
aF0.0
aF0.0
aF0.0
aF0.0
aF0.0
aF0.0
aF0.0
aF0.0
aF0.0
aF0.0
aF0.0
aF0.0
aF0.0
aF0.0
aF0.0
aF0.0
aF0.0
aF0.0
aF0.0
aF0.0
aF0.0
aF0.0
aF0.0
aF0.0
aF0.0
aF0.0
aF0.0
aF0.0
aF0.0
aF0.0
aF0.0
aF0.0
aF0.0
aF0.0
aF0.0
aF0.0
aF0.0
aF0.0
aF0.0
aF0.0
aF0.0
aF0.0
aF0.0
aF0.0
aF0.0
aF0.0
aF0.0
aF0.0
aF0.0
aF0.0
aF0.0
aF0.0
aF0.0
aF0.0
aF0.0
aF0.0
aF0.0
aF0.0
aF0.0
aF0.0
aF0.0
aF0.0
aF0.0
aF0.0
aF0.0
aF0.0
aF0.0
aF0.0
aF0.0
aF0.0
aF0.0
aF0.0
aF0.0
aF0.0
aF0.0
aF0.0
aF0.0
aF0.0
aF0.0
aF0.0
aF0.0
aF0.0
aF0.0
aF0.0
aF0.0
aF0.0
aF0.0
aF0.0
aF0.0
aF0.0
aF0.0
aF0.0
aF0.0
aF0.0
aF0.0
aF0.0
aF0.0
aF0.0
aF0.0
aF0.0
aF0.0
aF0.0
aF0.0
aF0.0
aF0.0
aF0.0
aF0.0
aF0.0
aF0.0
aF0.0
aF0.0
aF0.0
aF0.0
aF0.0
aF0.0
aF0.0
aF0.0
aF0.0
aF0.0
aF0.0
aF0.0
aF0.0
aF0.0
aF0.0
aF0.0
aF0.0
aF0.0
aF0.0
aF0.0
aF0.0
aF0.0
aF0.0
aF0.0
aF0.0
aF0.0
aF0.0
aF0.0
aF0.0
aF0.0
aF0.0
aF0.0
aF0.0
aF0.0
aF0.0
aF0.0
aF0.0
aF0.0
aF0.0
aF0.0
aF0.0
aF0.0
aF0.0
aF0.0
aF0.0
aF0.0
aF0.0
aF0.0
aF0.0
aF0.0
aF0.0
aF0.0
aF0.0
aF0.0
aF0.0
aF0.0
aF0.0
aF0.0
aF0.0
aF0.0
aF0.0
aF0.0
aF0.0
aF0.0
aF0.0
aF0.0
aF0.0
aF0.0
aF0.0
aF0.0
aF0.0
aF0.0
aF0.0
aF0.0
aF0.0
aF0.0
aF0.0
aF0.0
aF0.0
aF0.0
aF0.0
aF0.0
aF0.0
aF0.0
aF0.0
aF0.0
aF0.0
aF0.0
aF0.0
aF0.0
aF0.0
aF0.0
aF0.0
aF0.0
aF0.0
aF0.0
aF0.0
aF0.0
aF0.0
aF0.0
aF0.0
aF0.0
aF0.0
aF0.0
aF0.0
aF0.0
aF0.0
aF0.0
aF0.0
aF0.0
aF0.0
aF0.0
aF0.0
aF0.0
aF0.0
aF0.0
aF0.0
aF0.0
aF0.0
aF0.0
aF0.0
aF0.0
aF0.0
aF0.0
aF0.0
aF0.0
aF0.0
aF0.0
aF0.0
aF0.0
aF0.0
aF0.0
aF0.0
aF0.0
aF0.0
aF0.0
aF0.0
aF0.0
aF0.0
aF0.0
aF0.0
aF0.0
aF0.0
aF0.0
aF0.0
aF0.0
aF0.0
aF0.0
aF0.0
aF0.0
aF0.0
aF0.0
aF0.0
aF0.0
aF0.0
aF0.0
aF0.0
aF0.0
aF0.0
aF0.0
aF0.0
aF0.0
aF0.0
aF0.0
aF0.0
aF0.0
aF0.0
aF0.0
aF0.0
aF0.0
aF0.0
aF0.0
aF0.0
aF0.0
aF0.0
aF0.0
aF0.0
aF0.0
aF0.0
aF0.0
aF0.0
aF0.0
aF0.0
aF0.0
aF0.0
aF0.0
aF0.0
aF0.0
aF0.0
aF0.0
aF0.0
aF0.0
aF0.0
aF0.0
aF0.0
aF0.0
aF0.0
aF0.0
aF0.0
aF0.0
aF0.0
aF0.0
aF0.0
aF0.0
aF0.0
aF0.0
aF0.0
aF0.0
aF0.0
aF0.0
aF0.0
aF0.0
aF0.0
aF0.0
aF0.0
aF0.0
aF0.0
aF0.0
aF0.0
aF0.0
aF0.0
aF0.0
aF0.0
aF0.0
aF0.0
aF0.0
aF0.0
aF0.0
aF0.0
aF0.0
aF0.0
aF0.0
aF0.0
aF0.0
aF0.0
aF0.0
aF0.0
aF0.0
aF0.0
aF0.0
aF0.0
aF0.0
aF0.0
aF0.0
aF0.0
aF0.0
aF0.0
aF0.0
aF0.0
aF0.0
aF0.0
aF0.0
aF0.0
aF0.0
aF0.0
aF0.0
aF0.0
aF0.0
aF0.0
aF0.0
aF0.0
aF0.0
aF0.0
aF0.0
aF0.0
aF0.0
aF0.0
aF0.0
aF0.0
aF0.0
aF0.0
aF0.0
aF0.0
aF0.0
aF0.0
aF0.0
aF0.0
aF0.0
aF0.0
aF0.0
aF0.0
aF0.0
aF0.0
aF0.0
aF0.0
aF0.0
aF0.0
aF0.0
aF0.0
aF0.0
aF0.0
aF0.0
aF0.0
aF0.0
aF0.0
aF0.0
aF0.0
aF0.0
aF0.0
aF0.0
aF0.0
aF0.0
aF0.0
aF0.0
aF0.0
aF0.0
aF0.0
aF0.0
aF0.0
aF0.0
aF0.0
aF0.0
aF0.0
aF0.0
aF0.0
aF0.0
aF0.0
aF0.0
aF0.0
aF0.0
aF0.0
aF0.0
aF0.0
aF0.0
aF0.0
aF0.0
aF0.0
aF0.0
aF0.0
aF0.0
aF0.0
aF0.0
aF0.0
aF0.0
aF0.0
aF0.0
aF0.0
aF0.0
aF0.0
aF0.0
aF0.0
aF0.0
aF0.0
aF0.0
aF0.0
aF0.0
aF0.0
aF0.0
aF0.0
aF0.0
aF0.0
aF0.0
aF0.0
aF0.0
aF0.0
aF0.0
aF0.0
aF0.0
aF0.0
aF0.0
aF0.0
aF0.0
aF0.0
aF0.0
aF0.0
aF0.0
aF0.0
aF0.0
aF0.0
aF0.0
aF0.0
aF0.0
aF0.0
aF0.0
aF0.0
aF0.0
aF0.0
aF0.0
aF0.0
aF0.0
aF0.0
aF0.0
aF0.0
aF0.0
aF0.0
aF0.0
aF0.0
aF0.0
aF0.0
aF0.0
aF0.0
aF0.0
aF0.0
aF0.0
aF0.0
aF0.0
aF0.0
aF0.0
aF0.0
aF0.0
aF0.0
aF0.0
aF0.0
aF0.0
aF0.0
aF0.0
aF0.0
aF0.0
aF0.0
aF0.0
aF0.0
aF0.0
aF0.0
aF0.0
aF0.0
aF0.0
aF0.0
aF0.0
aF0.0
aF0.0
aF0.0
aF0.0
aF0.0
aF0.0
aF0.0
aF0.0
aF0.0
aF0.0
aF0.0
aF0.0
aF0.0
aF0.0
aF0.0
aF0.0
aF0.0
aF0.0
aF0.0
aF0.0
aF0.0
aF0.0
aF0.0
aF0.0
aF0.0
aF0.0
aF0.0
aF0.0
aF0.0
aF0.0
aF0.0
aF0.0
aF0.0
aF0.0
aF0.0
aF0.0
aF0.0
aF0.0
aF0.0
aF0.0
aF0.0
aF0.0
aF0.0
aF0.0
aF0.0
aF0.0
aF0.0
aF0.0
aF0.0
aF0.0
aF0.0
aF0.0
aF0.0
aF0.0
aF0.0
aF0.0
aF0.0
aF0.0
aF0.0
aF0.0
aF0.0
aF0.0
aF0.0
aF0.0
aF0.0
aF0.0
aF0.0
aF0.0
aF0.0
aF0.0
aF0.0
aF0.0
aF0.0
aF0.0
aF0.0
aF0.0
aF0.0
aF0.0
aF0.0
aF0.0
aF0.0
aF0.0
aF0.0
aF0.0
aF0.0
aF0.0
aF0.0
aF0.0
aF0.0
aF0.0
aF0.0
aF0.0
aF0.0
aF0.0
aF0.0
aF0.0
aF0.0
aF0.0
aF0.0
aF0.0
aF0.0
aF0.0
aF0.0
aF0.0
aF0.0
aF0.0
aF0.0
aF0.0
aF0.0
aF0.0
aF0.0
aF0.0
aF0.0
aF0.0
aF0.0
aF0.0
aF0.0
aF0.0
aF0.0
aF0.0
aF0.0
aF0.0
aF0.0
aF0.0
aF0.0
aF0.0
aF0.0
aF0.0
aF0.0
aF0.0
aF0.0
aF0.0
aF0.0
aF0.0
aF0.0
aF0.0
aF0.0
aF0.0
aF0.0
aF0.0
aF0.0
aF0.0
aF0.0
aF0.0
aF0.0
aF0.0
aF0.0
aF0.0
aF0.0
aF0.0
aF0.0
aF0.0
aF0.0
aF0.0
aF0.0
aF0.0
aF0.0
aF0.0
aF0.0
aF0.0
aF0.0
aF0.0
aF0.0
aF0.0
aF0.0
aF0.0
aF0.0
aF0.0
aF0.0
aF0.0
aF0.0
aF0.0
aF0.0
aF0.0
aF0.0
aF0.0
aF0.0
aF0.0
aF0.0
aF0.0
aF0.0
aF0.0
aF0.0
aF0.0
aF0.0
aF0.0
aF0.0
aF0.0
aF0.0
aF0.0
aF0.0
aF0.0
aF0.0
aF0.0
aF0.0
aF0.0
aF0.0
aF0.0
aF0.0
aF0.0
aF0.0
aF0.0
aF0.0
aF0.0
aF0.0
aF0.0
aF0.0
aF0.0
aF0.0
aF0.0
aF0.0
aF0.0
aF0.0
aF0.0
aF0.0
aF0.0
aF0.0
aF0.0
aF0.0
aF0.0
aF0.0
aF0.0
aF0.0
aF0.0
aF0.0
aF0.0
aF0.0
aF0.0
aF0.0
aF0.0
aF0.0
aF0.0
aF0.0
aF0.0
aF0.0
aF0.0
aF0.0
aF0.0
aF0.0
aF0.0
aF0.0
aF0.0
aF0.0
aF0.0
aF0.0
aF0.0
aF0.0
aF0.0
aF0.0
aF0.0
aF0.0
aF0.0
aF0.0
aF0.0
aF0.0
aF0.0
aF0.0
aF0.0
aF0.0
aF0.0
aF0.0
aF0.0
aF0.0
aF0.0
aF0.0
aF0.0
aF0.0
aF0.0
aF0.0
aF0.0
aF0.0
aF0.0
aF0.0
aF0.0
aF0.0
aF0.0
aF0.0
aF0.0
aF0.0
aF0.0
aF0.0
aF0.0
aF0.0
aF0.0
aF0.0
aF0.0
aF0.0
aF0.0
aF0.0
aF0.0
aF0.0
aF0.0
aF0.0
aF0.0
aF0.0
aF0.0
aF0.0
aF0.0
aF0.0
aF0.0
aF0.0
aF0.0
aF0.0
aF0.0
aF0.0
aF0.0
aF0.0
aF0.0
aF0.0
aF0.0
aF0.0
aF0.0
aF0.0
aF0.0
aF0.0
aF0.0
aF0.0
aF0.0
aF0.0
aF0.0
aF0.0
aF0.0
aF0.0
aF0.0
aF0.0
aF0.0
aF0.0
aF0.0
aF0.0
aF0.0
aF0.0
aF0.0
aF0.0
aF0.0
aF0.0
aF0.0
aF0.0
aF0.0
aF0.0
aF0.0
aF0.0
aF0.0
aF0.0
aF0.0
aF0.0
aF0.0
aF0.0
aF0.0
aF0.0
aF0.0
aF0.0
aF0.0
aF0.0
aF0.0
aF0.0
aF0.0
aF0.0
aF0.0
aF0.0
aF0.0
aF0.0
aF0.0
aF0.0
aF0.0
aF0.0
aF0.0
aF0.0
aF0.0
aF0.0
aF0.0
aF0.0
aF0.0
aF0.0
aF0.0
aF0.0
aF0.0
aF0.0
aF0.0
aF0.0
aF0.0
aF0.0
aF0.0
aF0.0
aF0.0
aF0.0
aF0.0
aF0.0
aF0.0
aF0.0
aF0.0
aF0.0
aF0.0
aF0.0
aF0.0
aF0.0
aF0.0
aF0.0
aF0.0
aF0.0
aF0.0
aF0.0
aF0.0
aF0.0
aF0.0
aF0.0
aF0.0
aF0.0
aF0.0
aF0.0
aF0.0
aF0.0
aF0.0
aF0.0
aF0.0
aF0.0
aF0.0
aF0.0
aF0.0
aF0.0
aF0.0
aF0.0
aF0.0
aF0.0
aF0.0
aF0.0
aF0.0
aF0.0
aF0.0
aF0.0
aF0.0
aF0.0
aF0.0
aF0.0
aF0.0
aF0.0
aF0.0
aF0.0
aF0.0
aF0.0
aF0.0
aF0.0
aF0.0
aF0.0
aF0.0
aF0.0
aF0.0
aF0.0
aF0.0
aF0.0
aF0.0
aF0.0
aF0.0
aF0.0
aF0.0
aF0.0
aF0.0
aF0.0
aF0.0
aF0.0
aF0.0
aF0.0
aF0.0
aF0.0
aF0.0
aF0.0
aF0.0
aF0.0
aF0.0
aF0.0
aF0.0
aF0.0
aF0.0
aF0.0
aF0.0
aF0.0
aF0.0
aF0.0
aF0.0
aF0.0
aF0.0
aF0.0
aF0.0
aF0.0
aF0.0
aF0.0
aF0.0
aF0.0
aF0.0
aF0.0
aF0.0
aF0.0
aF0.0
aF0.0
aF0.0
aF0.0
aF0.0
aF0.0
aF0.0
aF0.0
aF0.0
aF0.0
aF0.0
aF0.0
aF0.0
aF0.0
aF0.0
aF0.0
aF0.0
aF0.0
aF0.0
aF0.0
aF0.0
aF0.0
aF0.0
aF0.0
aF0.0
aF0.0
aF0.0
aF0.0
aF0.0
aF0.0
aF0.0
aF0.0
aF0.0
aF0.0
aF0.0
aF0.0
aF0.0
aF0.0
aF0.0
aF0.0
aF0.0
aF0.0
aF0.0
aF0.0
aF0.0
aF0.0
aF0.0
aF0.0
aF0.0
aF0.0
aF0.0
aF0.0
aF0.0
aF0.0
aF0.0
aF0.0
aF0.0
aF0.0
aF0.0
aF0.0
aF0.0
aF0.0
aF0.0
aF0.0
aF0.0
aF0.0
aF0.0
aF0.0
aF0.0
aF0.0
aF0.0
aF0.0
aF0.0
aF0.0
aF0.0
aF0.0
aF0.0
aF0.0
aF0.0
aF0.0
aF0.0
aF0.0
aF0.0
aF0.0
aF0.0
aF0.0
aF0.0
aF0.0
aF0.0
aF0.0
aF0.0
aF0.0
aF0.0
aF0.0
aF0.0
aF0.0
aF0.0
aF0.0
aF0.0
aF0.0
aF0.0
aF0.0
aF0.0
aF0.0
aF0.0
aF0.0
aF0.0
aF0.0
aF0.0
aF0.0
aF0.0
aF0.0
aF0.0
aF0.0
aF0.0
aF0.0
aF0.0
aF0.0
aF0.0
aF0.0
aF0.0
aF0.0
aF0.0
aF0.0
aF0.0
aF0.0
aF0.0
aF0.0
aF0.0
aF0.0
aF0.0
aF0.0
aF0.0
aF0.0
aF0.0
aF0.0
aF0.0
aF0.0
aF0.0
aF0.0
aF0.0
aF0.0
aF0.0
aF0.0
aF0.0
aF0.0
aF0.0
aF0.0
aF0.0
aF0.0
aF0.0
aF0.0
aF0.0
aF0.0
aF0.0
aF0.0
aF0.0
aF0.0
aF0.0
aF0.0
aF0.0
aF0.0
aF0.0
aF0.0
aF0.0
aF0.0
aF0.0
aF0.0
aF0.0
aF0.0
aF0.0
aF0.0
aF0.0
aF0.0
aF0.0
aF0.0
aF0.0
aF0.0
aF0.0
aF0.0
aF0.0
aF0.0
aF0.0
aF0.0
aF0.0
aF0.0
aF0.0
aF0.0
aF0.0
aF0.0
aF0.0
aF0.0
aF0.0
aF0.0
aF0.0
aF0.0
aF0.0
aF0.0
aF0.0
aF0.0
aF0.0
aF0.0
aF0.0
aF0.0
aF0.0
aF0.0
aF0.0
aF0.0
aF0.0
aF0.0
aF0.0
aF0.0
aF0.0
aF0.0
aF0.0
aF0.0
aF0.0
aF0.0
aF0.0
aF0.0
aF0.0
aF0.0
aF0.0
aF0.0
aF0.0
aF0.0
aF0.0
aF0.0
aF0.0
aF0.0
aF0.0
aF0.0
aF0.0
aF0.0
aF0.0
aF0.0
aF0.0
aF0.0
aF0.0
aF0.0
aF0.0
aF0.0
aF0.0
aF0.0
aF0.0
aF0.0
aF0.0
aF0.0
aF0.0
aF0.0
aF0.0
aF0.0
aF0.0
aF0.0
aF0.0
aF0.0
aF0.0
aF0.0
aF0.0
aF0.0
aF0.0
aF0.0
aF0.0
aF0.0
aF0.0
aF0.0
aF0.0
aF0.0
aF0.0
aF0.0
aF0.0
aF0.0
aF0.0
aF0.0
aF0.0
aF0.0
aF0.0
aF0.0
aF0.0
aF0.0
aF0.0
aF0.0
aF0.0
aF0.0
aF0.0
aF0.0
aF0.0
aF0.0
aF0.0
aF0.0
aF0.0
aF0.0
aF0.0
aF0.0
aF0.0
aF0.0
aF0.0
aF0.0
aF0.0
aF0.0
aF0.0
aF0.0
aF0.0
aF0.0
aF0.0
aF0.0
aF0.0
aF0.0
aF0.0
aF0.0
aF0.0
aF0.0
aF0.0
aF0.0
aF0.0
aF0.0
aF0.0
aF0.0
aF0.0
aF0.0
aF0.0
aF0.0
aF0.0
aF0.0
aF0.0
aF0.0
aF0.0
aF0.0
aF0.0
aF0.0
aF0.0
aF0.0
aF0.0
aF0.0
aF0.0
aF0.0
aF0.0
aF0.0
aF0.0
aF0.0
aF0.0
aF0.0
aF0.0
aF0.0
aF0.0
aF0.0
aF0.0
aF0.0
aF0.0
aF0.0
aF0.0
aF0.0
aF0.0
aF0.0
aF0.0
aF0.0
aF0.0
aF0.0
aF0.0
aF0.0
aF0.0
aF0.0
aF0.0
aF0.0
aF0.0
aF0.0
aF0.0
aF0.0
aF0.0
aF0.0
aF0.0
aF0.0
aF0.0
aF0.0
aF0.0
aF0.0
aF0.0
aF0.0
aF0.0
aF0.0
aF0.0
aF0.0
aF0.0
aF0.0
aF0.0
aF0.0
aF0.0
aF0.0
aF0.0
aF0.0
aF0.0
aF0.0
aF0.0
aF0.0
aF0.0
aF0.0
aF0.0
aF0.0
aF0.0
aF0.0
aF0.0
aF0.0
aF0.0
aF0.0
aF0.0
aF0.0
aF0.0
aF0.0
aF0.0
aF0.0
aF0.0
aF0.0
aF0.0
aF0.0
aF0.0
aF0.0
aF0.0
aF0.0
aF0.0
aF0.0
aF0.0
aF0.0
aF0.0
aF0.0
aF0.0
aF0.0
aF0.0
aF0.0
aF0.0
aF0.0
aF0.0
aF0.0
aF0.0
aF0.0
aF0.0
aF0.0
aF0.0
aF0.0
aF0.0
aF0.0
aF0.0
aF0.0
aF0.0
aF0.0
aF0.0
aF0.0
aF0.0
aF0.0
aF0.0
aF0.0
aF0.0
aF0.0
aF0.0
aF0.0
aF0.0
aF0.0
aF0.0
aF0.0
aF0.0
aF0.0
aF0.0
aF0.0
aF0.0
aF0.0
aF0.0
aF0.0
aF0.0
aF0.0
aF0.0
aF0.0
aF0.0
aF0.0
aF0.0
aF0.0
aF0.0
aF0.0
aF0.0
aF0.0
aF0.0
aF0.0
aF0.0
aF0.0
aF0.0
aF0.0
aF0.0
aF0.0
aF0.0
aF0.0
aF0.0
aF0.0
aF0.0
aF0.0
aF0.0
aF0.0
aF0.0
aF0.0
aF0.0
aF0.0
aF0.0
aF0.0
aF0.0
aF0.0
aF0.0
aF0.0
aF0.0
aF0.0
aF0.0
aF0.0
aF0.0
aF0.0
aF0.0
aF0.0
aF0.0
aF0.0
aF0.0
aF0.0
aF0.0
aF0.0
aF0.0
aF0.0
aF0.0
aF0.0
aF0.0
aF0.0
aF0.0
aF0.0
aF0.0
aF0.0
aF0.0
aF0.0
aF0.0
aF0.0
aF0.0
aF0.0
aF0.0
aF0.0
aF0.0
aF0.0
aF0.0
aF0.0
aF0.0
aF0.0
aF0.0
aF0.0
aF0.0
aF0.0
aF0.0
aF0.0
aF0.0
aF0.0
aF0.0
aF0.0
aF0.0
aF0.0
aF0.0
aF0.0
aF0.0
aF0.0
aF0.0
aF0.0
aF0.0
aF0.0
aF0.0
aF0.0
aF0.0
aF0.0
aF0.0
aF0.0
aF0.0
aF0.0
aF0.0
aF0.0
aF0.0
aF0.0
aF0.0
aF0.0
aF0.0
aF0.0
aF0.0
aF0.0
aF0.0
aF0.0
aF0.0
aF0.0
aF0.0
aF0.0
aF0.0
aF0.0
aF0.0
aF0.0
aF0.0
aF0.0
aF0.0
aF0.0
aF0.0
aF0.0
aF0.0
aF0.0
aF0.0
aF0.0
aF0.0
aF0.0
aF0.0
aF0.0
aF0.0
aF0.0
aF0.0
aF0.0
aF0.0
aF0.0
aF0.0
aF0.0
aF0.0
aF0.0
aF0.0
aF0.0
aF0.0
aF0.0
aF0.0
aF0.0
aF0.0
aF0.0
aF0.0
aF0.0
aF0.0
aF0.0
aF0.0
aF0.0
aF0.0
aF0.0
aF0.0
aF0.0
aF0.0
aF0.0
aF0.0
aF0.0
aF0.0
aF0.0
aF0.0
aF0.0
aF0.0
aF0.0
aF0.0
aF0.0
aF0.0
aF0.0
aF0.0
aF0.0
aF0.0
aF0.0
aF0.0
aF0.0
aF0.0
aF0.0
aF0.0
aF0.0
aF0.0
aF0.0
aF0.0
aF0.0
aF0.0
aF0.0
aF0.0
aF0.0
aF0.0
aF0.0
aF0.0
aF0.0
aF0.0
aF0.0
aF0.0
aF0.0
aF0.0
aF0.0
aF0.0
aF0.0
aF0.0
aF0.0
aF0.0
aF0.0
aF0.0
aF0.0
aF0.0
aF0.0
aF0.0
aF0.0
aF0.0
aF0.0
aF0.0
aF0.0
aF0.0
aF0.0
aF0.0
aF0.0
aF0.0
aF0.0
aF0.0
aF0.0
aF0.0
aF0.0
aF0.0
aF0.0
aF0.0
aF0.0
aF0.0
aF0.0
aF0.0
aF0.0
aF0.0
aF0.0
aF0.0
aF0.0
aF0.0
aF0.0
aF0.0
aF0.0
aF0.0
aF0.0
aF0.0
aF0.0
aF0.0
aF0.0
aF0.0
aF0.0
aF0.0
aF0.0
aF0.0
aF0.0
aF0.0
aF0.0
aF0.0
aF0.0
aF0.0
aF0.0
aF0.0
aF0.0
aF0.0
aF0.0
aF0.0
aF0.0
aF0.0
aF0.0
aF0.0
aF0.0
aF0.0
aF0.0
aF0.0
aF0.0
aF0.0
aF0.0
aF0.0
aF0.0
aF0.0
aF0.0
aF0.0
aF0.0
aF0.0
aF0.0
aF0.0
aF0.0
aF0.0
aF0.0
aF0.0
aF0.0
aF0.0
aF0.0
aF0.0
aF0.0
aF0.0
aF0.0
aF0.0
aF0.0
aF0.0
aF0.0
aF0.0
aF0.0
aF0.0
aF0.0
aF0.0
aF0.0
aF0.0
aF0.0
aF0.0
aF0.0
aF0.0
aF0.0
aF0.0
aF0.0
aF0.0
aF0.0
aF0.0
aF0.0
aF0.0
aF0.0
aF0.0
aF0.0
aF0.0
aF0.0
aF0.0
aF0.0
aF0.0
aF0.0
aF0.0
aF0.0
aF0.0
aF0.0
aF0.0
aF0.0
aF0.0
aF0.0
aF0.0
aF0.0
aF0.0
aF0.0
aF0.0
aF0.0
aF0.0
aF0.0
aF0.0
aF0.0
aF0.0
aF0.0
aF0.0
aF0.0
aF0.0
aF0.0
aF0.0
aF0.0
aF0.0
aF0.0
aF0.0
aF0.0
aF0.0
aF0.0
aF0.0
aF0.0
aF0.0
aF0.0
aF0.0
aF0.0
aF0.0
aF0.0
aF0.0
aF0.0
aF0.0
aF0.0
aF0.0
aF0.0
aF0.0
aF0.0
aF0.0
aF0.0
aF0.0
aF0.0
aF0.0
aF0.0
aF0.0
aF0.0
aF0.0
aF0.0
aF0.0
aF0.0
aF0.0
aF0.0
aF0.0
aF0.0
aF0.0
aF0.0
aF0.0
aF0.0
aF0.0
aF0.0
aF0.0
aF0.0
aF0.0
aF0.0
aF0.0
aF0.0
aF0.0
aF0.0
aF0.0
aF0.0
aF0.0
aF0.0
aF0.0
aF0.0
aF0.0
aF0.0
aF0.0
aF0.0
aF0.0
aF0.0
aF0.0
aF0.0
aF0.0
aF0.0
aF0.0
aF0.0
aF0.0
aF0.0
aF0.0
aF0.0
aF0.0
aF0.0
aF0.0
aF0.0
aF0.0
aF0.0
aF0.0
aF0.0
aF0.0
aF0.0
aF0.0
aF0.0
aF0.0
aF0.0
aF0.0
aF0.0
aF0.0
aF0.0
aF0.0
aF0.0
aF0.0
aF0.0
aF0.0
aF0.0
aF0.0
aF0.0
aF0.0
aF0.0
aF0.0
aF0.0
aF0.0
aF0.0
aF0.0
aF0.0
aF0.0
aF0.0
aF0.0
aF0.0
aF0.0
aF0.0
aF0.0
aF0.0
aF0.0
aF0.0
aF0.0
aF0.0
aF0.0
aF0.0
aF0.0
aF0.0
aF0.0
aF0.0
aF0.0
aF0.0
aF0.0
aF0.0
aF0.0
aF0.0
aF0.0
aF0.0
aF0.0
aF0.0
aF0.0
aF0.0
aF0.0
aF0.0
aF0.0
aF0.0
aF0.0
aF0.0
aF0.0
aF0.0
aF0.0
aF0.0
aF0.0
aF0.0
aF0.0
aF0.0
aF0.0
aF0.0
aF0.0
aF0.0
aF0.0
aF0.0
aF0.0
aF0.0
aF0.0
aF0.0
aF0.0
aF0.0
aF0.0
aF0.0
aF0.0
aF0.0
aF0.0
aF0.0
aF0.0
aF0.0
aF0.0
aF0.0
aF0.0
aF0.0
aF0.0
aF0.0
aF0.0
aF0.0
aF0.0
aF0.0
aF0.0
aF0.0
aF0.0
aF0.0
aF0.0
aF0.0
aF0.0
aF0.0
aF0.0
aF0.0
aF0.0
aF0.0
aF0.0
aF0.0
aF0.0
aF0.0
aF0.0
aF0.0
aF0.0
aF0.0
aF0.0
aF0.0
aF0.0
aF0.0
aF0.0
aF0.0
aF0.0
aF0.0
aF0.0
aF0.0
aF0.0
aF0.0
aF0.0
aF0.0
aF0.0
aF0.0
aF0.0
aF0.0
aF0.0
aF0.0
aF0.0
aF0.0
aF0.0
aF0.0
aF0.0
aF0.0
aF0.0
aF0.0
aF0.0
aF0.0
aF0.0
aF0.0
aF0.0
aF0.0
aF0.0
aF0.0
aF0.0
aF0.0
aF0.0
aF0.0
aF0.0
aF0.0
aF0.0
aF0.0
aF0.0
aF0.0
aF0.0
aF0.0
aF0.0
aF0.0
aF0.0
aF0.0
aF0.0
aF0.0
aF0.0
aF0.0
aF0.0
aF0.0
aF0.0
aF0.0
aF0.0
aF0.0
aF0.0
aF0.0
aF0.0
aF0.0
aF0.0
aF0.0
aF0.0
aF0.0
aF0.0
aF0.0
aF0.0
aF0.0
aF0.0
aF0.0
aF0.0
aF0.0
aF0.0
aF0.0
aF0.0
aF0.0
aF0.0
aF0.0
aF0.0
aF0.0
aF0.0
aF0.0
aF0.0
aF0.0
aF0.0
aF0.0
aF0.0
aF0.0
aF0.0
aF0.0
aF0.0
aF0.0
aF0.0
aF0.0
aF0.0
aF0.0
aF0.0
aF0.0
aF0.0
aF0.0
aF0.0
aF0.0
aF0.0
aF0.0
aF0.0
aF0.0
aF0.0
aF0.0
aF0.0
aF0.0
aF0.0
aF0.0
aF0.0
aF0.0
aF0.0
aF0.0
aF0.0
aF0.0
aF0.0
aF0.0
aF0.0
aF0.0
aF0.0
aF0.0
aF0.0
aF0.0
aF0.0
aF0.0
aF0.0
aF0.0
aF0.0
aF0.0
aF0.0
aF0.0
aF0.0
aF0.0
aF0.0
aF0.0
aF0.0
aF0.0
aF0.0
aF0.0
aF0.0
aF0.0
aF0.0
aF0.0
aF0.0
aF0.0
aF0.0
aF0.0
aF0.0
aF0.0
aF0.0
aF0.0
aF0.0
aF0.0
aF0.0
aF0.0
aF0.0
aF0.0
aF0.0
aF0.0
aF0.0
aF0.0
aF0.0
aF0.0
aF0.0
aF0.0
aF0.0
aF0.0
aF0.0
aF0.0
aF0.0
aF0.0
aF0.0
aF0.0
aF0.0
aF0.0
aF0.0
aF0.0
aF0.0
aF0.0
aF0.0
aF0.0
aF0.0
aF0.0
aF0.0
aF0.0
aF0.0
aF0.0
aF0.0
aF0.0
aF0.0
aF0.0
aF0.0
aF0.0
aF0.0
aF0.0
aF0.0
aF0.0
aF0.0
aF0.0
aF0.0
aF0.0
aF0.0
aF0.0
aF0.0
aF0.0
aF0.0
aF0.0
aF0.0
aF0.0
aF0.0
aF0.0
aF0.0
aF0.0
aF0.0
aF0.0
aF0.0
aF0.0
aF0.0
aF0.0
aF0.0
aF0.0
aF0.0
aF0.0
aF0.0
aF0.0
aF0.0
aF0.0
aF0.0
aF0.0
aF0.0
aF0.0
aF0.0
aF0.0
aF0.0
aF0.0
aF0.0
aF0.0
aF0.0
aF0.0
aF0.0
aF0.0
aF0.0
aF0.0
aF0.0
aF0.0
aF0.0
aF0.0
aF0.0
aF0.0
aF0.0
aF0.0
aF0.0
aF0.0
aF0.0
aF0.0
aF0.0
aF0.0
aF0.0
aF0.0
aF0.0
aF0.0
aF0.0
aF0.0
aF0.0
aF0.0
aF0.0
aF0.0
aF0.0
aF0.0
aF0.0
aF0.0
aF0.0
aF0.0
aF0.0
aF0.0
aF0.0
aF0.0
aF0.0
aF0.0
aF0.0
aF0.0
aF0.0
aF0.0
aF0.0
aF0.0
aF0.0
aF0.0
aF0.0
aF0.0
aF0.0
aF0.0
aF0.0
aF0.0
aF0.0
aF0.0
aF0.0
aF0.0
aF0.0
aF0.0
aF0.0
aF0.0
aF0.0
aF0.0
aF0.0
aF0.0
aF0.0
aF0.0
aF0.0
aF0.0
aF0.0
aF0.0
aF0.0
aF0.0
aF0.0
aF0.0
aF0.0
aF0.0
aF0.0
aF0.0
aF0.0
aF0.0
aF0.0
aF0.0
aF0.0
aF0.0
aF0.0
aF0.0
aF0.0
aF0.0
aF0.0
aF0.0
aF0.0
aF0.0
aF0.0
aF0.0
aF0.0
aF0.0
aF0.0
aF0.0
aF0.0
aF0.0
aF0.0
aF0.0
aF0.0
aF0.0
aF0.0
aF0.0
aF0.0
aF0.0
aF0.0
aF0.0
aF0.0
aF0.0
aF0.0
aF0.0
aF0.0
aF0.0
aF0.0
aF0.0
aF0.0
aF0.0
aF0.0
aF0.0
aF0.0
aF0.0
aF0.0
aF0.0
aF0.0
aF0.0
aF0.0
aF0.0
aF0.0
aF0.0
aF0.0
aF0.0
aF0.0
aF0.0
aF0.0
aF0.0
aF0.0
aF0.0
aF0.0
aF0.0
aF0.0
aF0.0
aF0.0
aF0.0
aF0.0
aF0.0
aF0.0
aF0.0
aF0.0
aF0.0
aF0.0
aF0.0
aF0.0
aF0.0
aF0.0
aF0.0
aF0.0
aF0.0
aF0.0
aF0.0
aF0.0
aF0.0
aF0.0
aF0.0
aF0.0
aF0.0
aF0.0
aF0.0
aF0.0
aF0.0
aF0.0
aF0.0
aF0.0
aF0.0
aF0.0
aF0.0
aF0.0
aF0.0
aF0.0
aF0.0
aF0.0
aF0.0
aF0.0
aF0.0
aF0.0
aF0.0
aF0.0
aF0.0
aF0.0
aF0.0
aF0.0
aF0.0
aF0.0
aF0.0
aF0.0
aF0.0
aF0.0
aF0.0
aF0.0
aF0.0
aF0.0
aF0.0
aF0.0
aF0.0
aF0.0
aF0.0
aF0.0
aF0.0
aF0.0
aF0.0
aF0.0
aF0.0
aF0.0
aF0.0
aF0.0
aF0.0
aF0.0
aF0.0
aF0.0
aF0.0
aF0.0
aF0.0
aF0.0
aF0.0
aF0.0
aF0.0
aF0.0
aF0.0
aF0.0
aF0.0
aF0.0
aF0.0
aF0.0
aF0.0
aF0.0
aF0.0
aF0.0
aF0.0
aF0.0
aF0.0
aF0.0
aF0.0
aF0.0
aF0.0
aF0.0
aF0.0
aF0.0
aF0.0
aF0.0
aF0.0
aF0.0
aF0.0
aF0.0
aF0.0
aF0.0
aF0.0
aF0.0
aF0.0
aF0.0
aF0.0
aF0.0
aF0.0
aF0.0
aF0.0
aF0.0
aF0.0
aF0.0
aF0.0
aF0.0
aF0.0
aF0.0
aF0.0
aF0.0
aF0.0
aF0.0
aF0.0
aF0.0
aF0.0
aF0.0
aF0.0
aF0.0
aF0.0
aF0.0
aF0.0
aF0.0
aF0.0
aF0.0
aF0.0
aF0.0
aF0.0
aF0.0
aF0.0
aF0.0
aF0.0
aF0.0
aF0.0
aF0.0
aF0.0
aF0.0
aF0.0
aF0.0
aF0.0
aF0.0
aF0.0
aF0.0
aF0.0
aF0.0
aF0.0
aF0.0
aF0.0
aF0.0
aF0.0
aF0.0
aF0.0
aF0.0
aF0.0
aF0.0
aF0.0
aF0.0
aF0.0
aF0.0
aF0.0
aF0.0
aF0.0
aF0.0
aF0.0
aF0.0
aF0.0
aF0.0
aF0.0
aF0.0
aF0.0
aF0.0
aF0.0
aF0.0
aF0.0
aF0.0
aF0.0
aF0.0
aF0.0
aF0.0
aF0.0
aF0.0
aF0.0
aF0.0
aF0.0
aF0.0
aF0.0
aF0.0
aF0.0
aF0.0
aF0.0
aF0.0
aF0.0
aF0.0
aF0.0
aF0.0
aF0.0
aF0.0
aF0.0
aF0.0
aF0.0
aF0.0
aF0.0
aF0.0
aF0.0
aF0.0
aF0.0
aF0.0
aF0.0
aF0.0
aF0.0
aF0.0
aF0.0
aF0.0
aF0.0
aF0.0
aF0.0
aF0.0
aF0.0
aF0.0
aF0.0
aF0.0
aF0.0
aF0.0
aF0.0
aF0.0
aF0.0
aF0.0
aF0.0
aF0.0
aF0.0
aF0.0
aF0.0
aF0.0
aF0.0
aF0.0
aF0.0
aF0.0
aF0.0
aF0.0
aF0.0
aF0.0
aF0.0
aF0.0
aF0.0
aF0.0
aF0.0
aF0.0
aF0.0
aF0.0
aF0.0
aF0.0
aF0.0
aF0.0
aF0.0
aF0.0
aF0.0
aF0.0
aF0.0
aF0.0
aF0.0
aF0.0
aF0.0
aF0.0
aF0.0
aF0.0
aF0.0
aF0.0
aF0.0
aF0.0
aF0.0
aF0.0
aF0.0
aF0.0
aF0.0
aF0.0
aF0.0
aF0.0
aF0.0
aF0.0
aF0.0
aF0.0
aF0.0
aF0.0
aF0.0
aF0.0
aF0.0
aF0.0
aF0.0
aF0.0
aF0.0
aF0.0
aF0.0
aF0.0
aF0.0
aF0.0
aF0.0
aF0.0
aF0.0
aF0.0
aF0.0
aF0.0
aF0.0
aF0.0
aF0.0
aF0.0
aF0.0
aF0.0
aF0.0
aF0.0
aF0.0
aF0.0
aF0.0
aF0.0
aF0.0
aF0.0
aF0.0
aF0.0
aF0.0
aF0.0
aF0.0
aF0.0
aF0.0
aF0.0
aF0.0
aF0.0
aF0.0
aF0.0
aF0.0
aF0.0
aF0.0
aF0.0
aF0.0
aF0.0
aF0.0
aF0.0
aF0.0
aF0.0
aF0.0
aF0.0
aF0.0
aF0.0
aF0.0
aF0.0
aF0.0
aF0.0
aF0.0
aF0.0
aF0.0
aF0.0
aF0.0
aF0.0
aF0.0
aF0.0
aF0.0
aF0.0
aF0.0
aF0.0
aF0.0
aF0.0
aF0.0
aF0.0
aF0.0
aF0.0
aF0.0
aF0.0
aF0.0
aF0.0
aF0.0
aF0.0
aF0.0
aF0.0
aF0.0
aF0.0
aF0.0
aF0.0
aF0.0
aF0.0
aF0.0
aF0.0
aF0.0
aF0.0
aF0.0
aF0.0
aF0.0
aF0.0
aF0.0
aF0.0
aF0.0
aF0.0
aF0.0
aF0.0
aF0.0
aF0.0
aF0.0
aF0.0
aF0.0
aF0.0
aF0.0
aF0.0
aF0.0
aF0.0
aF0.0
aF0.0
aF0.0
aF0.0
aF0.0
aF0.0
aF0.0
aF0.0
aF0.0
aF0.0
aF0.0
aF0.0
aF0.0
aF0.0
aF0.0
aF0.0
aF0.0
aF0.0
aF0.0
aF0.0
aF0.0
aF0.0
aF0.0
aF0.0
aF0.0
aF0.0
aF0.0
aF0.0
aF0.0
aF0.0
aF0.0
aF0.0
aF0.0
aF0.0
aF0.0
aF0.0
aF0.0
aF0.0
aF0.0
aF0.0
aF0.0
aF0.0
aF0.0
aF0.0
aF0.0
aF0.0
aF0.0
aF0.0
aF0.0
aF0.0
aF0.0
aF0.0
aF0.0
aF0.0
aF0.0
aF0.0
aF0.0
aF0.0
aF0.0
aF0.0
aF0.0
aF0.0
aF0.0
aF0.0
aF0.0
aF0.0
aF0.0
aF0.0
aF0.0
aF0.0
aF0.0
aF0.0
aF0.0
aF0.0
aF0.0
aF0.0
aF0.0
aF0.0
aF0.0
aF0.0
aF0.0
aF0.0
aF0.0
aF0.0
aF0.0
aF0.0
aF0.0
aF0.0
aF0.0
aF0.0
aF0.0
aF0.0
aF0.0
aF0.0
aF0.0
aF0.0
aF0.0
aF0.0
aF0.0
aF0.0
aF0.0
aF0.0
aF0.0
aF0.0
aF0.0
aF0.0
aF0.0
aF0.0
aF0.0
aF0.0
aF0.0
aF0.0
aF0.0
aF0.0
aF0.0
aF0.0
aF0.0
aF0.0
aF0.0
aF0.0
aF0.0
aF0.0
aF0.0
aF0.0
aF0.0
aF0.0
aF0.0
aF0.0
aF0.0
aF0.0
aF0.0
aF0.0
aF0.0
aF0.0
aF0.0
aF0.0
aF0.0
aF0.0
aF0.0
aF0.0
aF0.0
aF0.0
aF0.0
aF0.0
aF0.0
aF0.0
aF0.0
aF0.0
aF0.0
aF0.0
aF0.0
aF0.0
aF0.0
aF0.0
aF0.0
aF0.0
aF0.0
aF0.0
aF0.0
aF0.0
aF0.0
aF0.0
aF0.0
aF0.0
aF0.0
aF0.0
aF0.0
aF0.0
aF0.0
aF0.0
aF0.0
aF0.0
aF0.0
aF0.0
aF0.0
aF0.0
aF0.0
aF0.0
aF0.0
aF0.0
aF0.0
aF0.0
aF0.0
aF0.0
aF0.0
aF0.0
aF0.0
aF0.0
aF0.0
aF0.0
aF0.0
aF0.0
aF0.0
aF0.0
aF0.0
aF0.0
aF0.0
aF0.0
aF0.0
aF0.0
aF0.0
aF0.0
aF0.0
aF0.0
aF0.0
aF0.0
aF0.0
aF0.0
aF0.0
aF0.0
aF0.0
aF0.0
aF0.0
aF0.0
aF0.0
aF0.0
aF0.0
aF0.0
aF0.0
aF0.0
aF0.0
aF0.0
aF0.0
aF0.0
aF0.0
aF0.0
aF0.0
aF0.0
aF0.0
aF0.0
aF0.0
aF0.0
aF0.0
aF0.0
aF0.0
aF0.0
aF0.0
aF0.0
aF0.0
aF0.0
aF0.0
aF0.0
aF0.0
aF0.0
aF0.0
aF0.0
aF0.0
aF0.0
aF0.0
aF0.0
aF0.0
aF0.0
aF0.0
aF0.0
aF0.0
aF0.0
aF0.0
aF0.0
aF0.0
aF0.0
aF0.0
aF0.0
aF0.0
aF0.0
aF0.0
aF0.0
aF0.0
aF0.0
aF0.0
aF0.0
aF0.0
aF0.0
aF0.0
aF0.0
aF0.0
aF0.0
aF0.0
aF0.0
aF0.0
aF0.0
aF0.0
aF0.0
aF0.0
aF0.0
aF0.0
aF0.0
aF0.0
aF0.0
aF0.0
aF0.0
aF0.0
aF0.0
aF0.0
aF0.0
aF0.0
aF0.0
aF0.0
aF0.0
aF0.0
aF0.0
aF0.0
aF0.0
aF0.0
aF0.0
aF0.0
aF0.0
aF0.0
aF0.0
aF0.0
aF0.0
aF0.0
aF0.0
aF0.0
aF0.0
aF0.0
aF0.0
aF0.0
aF0.0
aF0.0
aF0.0
aF0.0
aF0.0
aF0.0
aF0.0
aF0.0
aF0.0
aF0.0
aF0.0
aF0.0
aF0.0
aF0.0
aF0.0
aF0.0
aF0.0
aF0.0
aF0.0
aF0.0
aF0.0
aF0.0
aF0.0
aF0.0
aF0.0
aF0.0
aF0.0
aF0.0
aF0.0
aF0.0
aF0.0
aF0.0
aF0.0
aF0.0
aF0.0
aF0.0
aF0.0
aF0.0
aF0.0
aF0.0
aF0.0
aF0.0
aF0.0
aF0.0
aF0.0
aF0.0
aF0.0
aF0.0
aF0.0
aF0.0
aF0.0
aF0.0
aF0.0
aF0.0
aF0.0
aF0.0
aF0.0
aF0.0
aF0.0
aF0.0
aF0.0
aF0.0
aF0.0
aF0.0
aF0.0
aF0.0
aF0.0
aF0.0
aF0.0
aF0.0
aF0.0
aF0.0
aF0.0
aF0.0
aF0.0
aF0.0
aF0.0
aF0.0
aF0.0
aF0.0
aF0.0
aF0.0
aF0.0
aF0.0
aF0.0
aF0.0
aF0.0
aF0.0
aF0.0
aF0.0
aF0.0
aF0.0
aF0.0
aF0.0
aF0.0
aF0.0
aF0.0
aF0.0
aF0.0
aF0.0
aF0.0
aF0.0
aF0.0
aF0.0
aF0.0
aF0.0
aF0.0
aF0.0
aF0.0
aF0.0
aF0.0
aF0.0
aF0.0
aF0.0
aF0.0
aF0.0
aF0.0
aF0.0
aF0.0
aF0.0
aF0.0
aF0.0
aF0.0
aF0.0
aF0.0
aF0.0
aF0.0
aF0.0
aF0.0
aF0.0
aF0.0
aF0.0
aF0.0
aF0.0
aF0.0
aF0.0
aF0.0
aF0.0
aF0.0
aF0.0
aF0.0
aF0.0
aF0.0
aF0.0
aF0.0
aF0.0
aF0.0
aF0.0
aF0.0
aF0.0
aF0.0
aF0.0
aF0.0
aF0.0
aF0.0
aF0.0
aF0.0
aF0.0
aF0.0
aF0.0
aF0.0
aF0.0
aF0.0
aF0.0
aF0.0
aF0.0
aF0.0
aF0.0
aF0.0
aF0.0
aF0.0
aF0.0
aF0.0
aF0.0
aF0.0
aF0.0
aF0.0
aF0.0
aF0.0
aF0.0
aF0.0
aF0.0
aF0.0
aF0.0
aF0.0
aF0.0
aF0.0
aF0.0
aF0.0
aF0.0
aF0.0
aF0.0
aF0.0
aF0.0
aF0.0
aF0.0
aF0.0
aF0.0
aF0.0
aF0.0
aF0.0
aF0.0
aF0.0
aF0.0
aF0.0
aF0.0
aF0.0
aF0.0
aF0.0
aF0.0
aF0.0
aF0.0
aF0.0
aF0.0
aF0.0
aF0.0
aF0.0
aF0.0
aF0.0
aF0.0
aF0.0
aF0.0
aF0.0
aF0.0
aF0.0
aF0.0
aF0.0
aF0.0
aF0.0
aF0.0
aF0.0
aF0.0
aF0.0
aF0.0
aF0.0
aF0.0
aF0.0
aF0.0
aF0.0
aF0.0
aF0.0
aF0.0
aF0.0
aF0.0
aF0.0
aF0.0
aF0.0
aF0.0
aF0.0
aF0.0
aF0.0
aF0.0
aF0.0
aF0.0
aF0.0
aF0.0
aF0.0
aF0.0
aF0.0
aF0.0
aF0.0
aF0.0
aF0.0
aF0.0
aF0.0
aF0.0
aF0.0
aF0.0
aF0.0
aF0.0
aF0.0
aF0.0
aF0.0
aF0.0
aF0.0
aF0.0
aF0.0
aF0.0
aF0.0
aF0.0
aF0.0
aF0.0
aF0.0
aF0.0
aF0.0
aF0.0
aF0.0
aF0.0
aF0.0
aF0.0
aF0.0
aF0.0
aF0.0
aF0.0
aF0.0
aF0.0
aF0.0
aF0.0
aF0.0
aF0.0
aF0.0
aF0.0
aF0.0
aF0.0
aF0.0
aF0.0
aF0.0
aF0.0
aF0.0
aF0.0
aF0.0
aF0.0
aF0.0
aF0.0
aF0.0
aF0.0
aF0.0
aF0.0
aF0.0
aF0.0
aF0.0
aF0.0
aF0.0
aF0.0
aF0.0
aF0.0
aF0.0
aF0.0
aF0.0
aF0.0
aF0.0
aF0.0
aF0.0
aF0.0
aF0.0
aF0.0
aF0.0
aF0.0
aF0.0
aF0.0
aF0.0
aF0.0
aF0.0
aF0.0
aF0.0
aF0.0
aF0.0
aF0.0
aF0.0
aF0.0
aF0.0
aF0.0
aF0.0
aF0.0
aF0.0
aF0.0
aF0.0
aF0.0
aF0.0
aF0.0
aF0.0
aF0.0
aF0.0
aF0.0
aF0.0
aF0.0
aF0.0
aF0.0
aF0.0
aF0.0
aF0.0
aF0.0
aF0.0
aF0.0
aF0.0
aF0.0
aF0.0
aF0.0
aF0.0
aF0.0
aF0.0
aF0.0
aF0.0
aF0.0
aF0.0
aF0.0
aF0.0
aF0.0
aF0.0
aF0.0
aF0.0
aF0.0
aF0.0
aF0.0
aF0.0
aF0.0
aF0.0
aF0.0
aF0.0
aF0.0
aF0.0
aF0.0
aF0.0
aF0.0
aF0.0
aF0.0
aF0.0
aF0.0
aF0.0
aF0.0
aF0.0
aF0.0
aF0.0
aF0.0
aF0.0
aF0.0
aF0.0
aF0.0
aF0.0
aF0.0
aF0.0
aF0.0
aF0.0
aF0.0
aF0.0
aF0.0
aF0.0
aF0.0
aF0.0
aF0.0
aF0.0
aF0.0
aF0.0
aF0.0
aF0.0
aF0.0
aF0.0
aF0.0
aF0.0
aF0.0
aF0.0
aF0.0
aF0.0
aF0.0
aF0.0
aF0.0
aF0.0
aF0.0
aF0.0
aF0.0
aF0.0
aF0.0
aF0.0
aF0.0
aF0.0
aF0.0
aF0.0
aF0.0
aF0.0
aF0.0
aF0.0
aF0.0
aF0.0
aF0.0
aF0.0
aF0.0
aF0.0
aF0.0
aF0.0
aF0.0
aF0.0
aF0.0
aF0.0
aF0.0
aF0.0
aF0.0
aF0.0
aF0.0
aF0.0
aF0.0
aF0.0
aF0.0
aF0.0
aF0.0
aF0.0
aF0.0
aF0.0
aF0.0
aF0.0
aF0.0
aF0.0
aF0.0
aF0.0
aF0.0
aF0.0
aF0.0
aF0.0
aF0.0
aF0.0
aF0.0
aF0.0
aF0.0
aF0.0
aF0.0
aF0.0
aF0.0
aF0.0
aF0.0
aF0.0
aF0.0
aF0.0
aF0.0
aF0.0
aF0.0
aF0.0
aF0.0
aF0.0
aF0.0
aF0.0
aF0.0
aF0.0
aF0.0
aF0.0
aF0.0
aF0.0
aF0.0
aF0.0
aF0.0
aF0.0
aF0.0
aF0.0
aF0.0
aF0.0
aF0.0
aF0.0
aF0.0
aF0.0
aF0.0
aF0.0
aF0.0
aF0.0
aF0.0
aF0.0
aF0.0
aF0.0
aF0.0
aF0.0
aF0.0
aF0.0
aF0.0
aF0.0
aF0.0
aF0.0
aF0.0
aF0.0
aF0.0
aF0.0
aF0.0
aF0.0
aF0.0
aF0.0
aF0.0
aF0.0
aF0.0
aF0.0
aF0.0
aF0.0
aF0.0
aF0.0
aF0.0
aF0.0
aF0.0
aF0.0
aF0.0
aF0.0
aF0.0
aF0.0
aF0.0
aF0.0
aF0.0
aF0.0
aF0.0
aF0.0
aF0.0
aF0.0
aF0.0
aF0.0
aF0.0
aF0.0
aF0.0
aF0.0
aF0.0
aF0.0
aF0.0
aF0.0
aF0.0
aF0.0
aF0.0
aF0.0
aF0.0
aF0.0
aF0.0
aF0.0
aF0.0
aF0.0
aF0.0
aF0.0
aF0.0
aF0.0
aF0.0
aF0.0
aF0.0
aF0.0
aF0.0
aF0.0
aF0.0
aF0.0
aF0.0
aF0.0
aF0.0
aF0.0
aF0.0
aF0.0
aF0.0
aF0.0
aF0.0
aF0.0
aF0.0
aF0.0
aF0.0
aF0.0
aF0.0
aF0.0
aF0.0
aF0.0
aF0.0
aF0.0
aF0.0
aF0.0
aF0.0
aF0.0
aF0.0
aF0.0
aF0.0
aF0.0
aF0.0
aF0.0
aF0.0
aF0.0
aF0.0
aF0.0
aF0.0
aF0.0
aF0.0
aF0.0
aF0.0
aF0.0
aF0.0
aF0.0
aF0.0
aF0.0
aF0.0
aF0.0
aF0.0
aF0.0
aF0.0
aF0.0
aF0.0
aF0.0
aF0.0
aF0.0
aF0.0
aF0.0
aF0.0
aF0.0
aF0.0
aF0.0
aF0.0
aF0.0
aF0.0
aF0.0
aF0.0
aF0.0
aF0.0
aF0.0
aF0.0
aF0.0
aF0.0
aF0.0
aF0.0
aF0.0
aF0.0
aF0.0
aF0.0
aF0.0
aF0.0
aF0.0
aF0.0
aF0.0
aF0.0
aF0.0
aF0.0
aF0.0
aF0.0
aF0.0
aF0.0
aF0.0
aF0.0
aF0.0
aF0.0
aF0.0
aF0.0
aF0.0
aF0.0
aF0.0
aF0.0
aF0.0
aF0.0
aF0.0
aF0.0
aF0.0
aF0.0
aF0.0
aF0.0
aF0.0
aF0.0
aF0.0
aF0.0
aF0.0
aF0.0
aF0.0
aF0.0
aF0.0
aF0.0
aF0.0
aF0.0
aF0.0
aF0.0
aF0.0
aF0.0
aF0.0
aF0.0
aF0.0
aF0.0
aF0.0
aF0.0
aF0.0
aF0.0
aF0.0
aF0.0
aF0.0
aF0.0
aF0.0
aF0.0
aF0.0
aF0.0
aF0.0
aF0.0
aF0.0
aF0.0
aF0.0
aF0.0
aF0.0
aF0.0
aF0.0
aF0.0
aF0.0
aF0.0
aF0.0
aF0.0
aF0.0
aF0.0
aF0.0
aF0.0
aF0.0
aF0.0
aF0.0
aF0.0
aF0.0
aF0.0
aF0.0
aF0.0
aF0.0
aF0.0
aF0.0
aF0.0
aF0.0
aF0.0
aF0.0
aF0.0
aF0.0
aF0.0
aF0.0
aF0.0
aF0.0
aF0.0
aF0.0
aF0.0
aF0.0
aF0.0
aF0.0
aF0.0
aF0.0
aF0.0
aF0.0
aF0.0
aF0.0
aF0.0
aF0.0
aF0.0
aF0.0
aF0.0
aF0.0
aF0.0
aF0.0
aF0.0
aF0.0
aF0.0
aF0.0
aF0.0
aF0.0
aF0.0
aF0.0
aF0.0
aF0.0
aF0.0
aF0.0
aF0.0
aF0.0
aF0.0
aF0.0
aF0.0
aF0.0
aF0.0
aF0.0
aF0.0
aF0.0
aF0.0
aF0.0
aF0.0
aF0.0
aF0.0
aF0.0
aF0.0
aF0.0
aF0.0
aF0.0
aF0.0
aF0.0
aF0.0
aF0.0
aF0.0
aF0.0
aF0.0
aF0.0
aF0.0
aF0.0
aF0.0
aF0.0
aF0.0
aF0.0
aF0.0
aF0.0
aF0.0
aF0.0
aF0.0
aF0.0
aF0.0
aF0.0
aF0.0
aF0.0
aF0.0
aF0.0
aF0.0
aF0.0
aF0.0
aF0.0
aF0.0
aF0.0
aF0.0
aF0.0
aF0.0
aF0.0
aF0.0
aF0.0
aF0.0
aF0.0
aF0.0
aF0.0
aF0.0
aF0.0
aF0.0
aF0.0
aF0.0
aF0.0
aF0.0
aF0.0
aF0.0
aF0.0
aF0.0
aF0.0
aF0.0
aF0.0
aF0.0
aF0.0
aF0.0
aF0.0
aF0.0
aF0.0
aF0.0
aF0.0
aF0.0
aF0.0
aF0.0
aF0.0
aF0.0
aF0.0
aF0.0
aF0.0
aF0.0
aF0.0
aF0.0
aF0.0
aF0.0
aF0.0
aF0.0
aF0.0
aF0.0
aF0.0
aF0.0
aF0.0
aF0.0
aF0.0
aF0.0
aF0.0
aF0.0
aF0.0
aF0.0
aF0.0
aF0.0
aF0.0
aF0.0
aF0.0
aF0.0
aF0.0
aF0.0
aF0.0
aF0.0
aF0.0
aF0.0
aF0.0
aF0.0
aF0.0
aF0.0
aF0.0
aF0.0
aF0.0
aF0.0
aF0.0
aF0.0
aF0.0
aF0.0
aF0.0
aF0.0
aF0.0
aF0.0
aF0.0
aF0.0
aF0.0
aF0.0
aF0.0
aF0.0
aF0.0
aF0.0
aF0.0
aF0.0
aF0.0
aF0.0
aF0.0
aF0.0
aF0.0
aF0.0
aF0.0
aF0.0
aF0.0
aF0.0
aF0.0
aF0.0
aF0.0
aF0.0
aF0.0
aF0.0
aF0.0
aF0.0
aF0.0
aF0.0
aF0.0
aF0.0
aF0.0
aF0.0
aF0.0
aF0.0
aF0.0
aF0.0
aF0.0
aF0.0
aF0.0
aF0.0
aF0.0
aF0.0
aF0.0
aF0.0
aF0.0
aF0.0
aF0.0
aF0.0
aF0.0
aF0.0
aF0.0
aF0.0
aF0.0
aF0.0
aF0.0
aF0.0
aF0.0
aF0.0
aF0.0
aF0.0
aF0.0
aF0.0
aF0.0
aF0.0
aF0.0
aF0.0
aF0.0
aF0.0
aF0.0
aF0.0
aF0.0
aF0.0
aF0.0
aF0.0
aF0.0
aF0.0
aF0.0
aF0.0
aF0.0
aF0.0
aF0.0
aF0.0
aF0.0
aF0.0
aF0.0
aF0.0
aF0.0
aF0.0
aF0.0
aF0.0
aF0.0
aF0.0
aF0.0
aF0.0
aF0.0
aF0.0
aF0.0
aF0.0
aF0.0
aF0.0
aF0.0
aF0.0
aF0.0
aF0.0
aF0.0
aF0.0
aF0.0
aF0.0
aF0.0
aF0.0
aF0.0
aF0.0
aF0.0
aF0.0
aF0.0
aF0.0
aF0.0
aF0.0
aF0.0
aF0.0
aF0.0
aF0.0
aF0.0
aF0.0
aF0.0
aF0.0
aF0.0
aF0.0
aF0.0
aF0.0
aF0.0
aF0.0
aF0.0
aF0.0
aF0.0
aF0.0
aF0.0
aF0.0
aF0.0
aF0.0
aF0.0
aF0.0
aF0.0
aF0.0
aF0.0
aF0.0
aF0.0
aF0.0
aF0.0
aF0.0
aF0.0
aF0.0
aF0.0
aF0.0
aF0.0
aF0.0
aF0.0
aF0.0
aF0.0
aF0.0
aF0.0
aF0.0
aF0.0
aF0.0
aF0.0
aF0.0
aF0.0
aF0.0
aF0.0
aF0.0
aF0.0
aF0.0
aF0.0
aF0.0
aF0.0
aF0.0
aF0.0
aF0.0
aF0.0
aF0.0
aF0.0
aF0.0
aF0.0
aF0.0
aF0.0
aF0.0
aF0.0
aF0.0
aF0.0
aF0.0
aF0.0
aF0.0
aF0.0
aF0.0
aF0.0
aF0.0
aF0.0
aF0.0
aF0.0
aF0.0
aF0.0
aF0.0
aF0.0
aF0.0
aF0.0
aF0.0
aF0.0
aF0.0
aF0.0
aF0.0
aF0.0
aF0.0
aF0.0
aF0.0
aF0.0
aF0.0
aF0.0
aF0.0
aF0.0
aF0.0
aF0.0
aF0.0
aF0.0
aF0.0
aF0.0
aF0.0
aF0.0
aF0.0
aF0.0
aF0.0
aF0.0
aF0.0
aF0.0
aF0.0
aF0.0
aF0.0
aF0.0
aF0.0
aF0.0
aF0.0
aF0.0
aF0.0
aF0.0
aF0.0
aF0.0
aF0.0
aF0.0
aF0.0
aF0.0
aF0.0
aF0.0
aF0.0
aF0.0
aF0.0
aF0.0
aF0.0
aF0.0
aF0.0
aF0.0
aF0.0
aF0.0
aF0.0
aF0.0
aF0.0
aF0.0
aF0.0
aF0.0
aF0.0
aF0.0
aF0.0
aF0.0
aF0.0
aF0.0
aF0.0
aF0.0
aF0.0
aF0.0
aF0.0
aF0.0
aF0.0
aF0.0
aF0.0
aF0.0
aF0.0
aF0.0
aF0.0
aF0.0
aF0.0
aF0.0
aF0.0
aF0.0
aF0.0
aF0.0
aF0.0
aF0.0
aF0.0
aF0.0
aF0.0
aF0.0
aF0.0
aF0.0
aF0.0
aF0.0
aF0.0
aF0.0
aF0.0
aF0.0
aF0.0
aF0.0
aF0.0
aF0.0
aF0.0
aF0.0
aF0.0
aF0.0
aF0.0
aF0.0
aF0.0
aF0.0
aF0.0
aF0.0
aF0.0
aF0.0
aF0.0
aF0.0
aF0.0
aF0.0
aF0.0
aF0.0
aF0.0
aF0.0
aF0.0
aF0.0
aF0.0
aF0.0
aF0.0
aF0.0
aF0.0
aF0.0
aF0.0
aF0.0
aF0.0
aF0.0
aF0.0
aF0.0
aF0.0
aF0.0
aF0.0
aF0.0
aF0.0
aF0.0
aF0.0
aF0.0
aF0.0
aF0.0
aF0.0
aF0.0
aF0.0
aF0.0
aF0.0
aF0.0
aF0.0
aF0.0
aF0.0
aF0.0
aF0.0
aF0.0
aF0.0
aF0.0
aF0.0
aF0.0
aF0.0
aF0.0
aF0.0
aF0.0
aF0.0
aF0.0
aF0.0
aF0.0
aF0.0
aF0.0
aF0.0
aF0.0
aF0.0
aF0.0
aF0.0
aF0.0
aF0.0
aF0.0
aF0.0
aF0.0
aF0.0
aF0.0
aF0.0
aF0.0
aF0.0
aF0.0
aF0.0
aF0.0
aF0.0
aF0.0
aF0.0
aF0.0
aF0.0
aF0.0
aF0.0
aF0.0
aF0.0
aF0.0
aF0.0
aF0.0
aF0.0
aF0.0
aF0.0
aF0.0
aF0.0
aF0.0
aF0.0
aF0.0
aF0.0
aF0.0
aF0.0
aF0.0
aF0.0
aF0.0
aF0.0
aF0.0
aF0.0
aF0.0
aF0.0
aF0.0
aF0.0
aF0.0
aF0.0
aF0.0
aF0.0
aF0.0
aF0.0
aF0.0
aF0.0
aF0.0
aF0.0
aF0.0
aF0.0
aF0.0
aF0.0
aF0.0
aF0.0
aF0.0
aF0.0
aF0.0
aF0.0
aF0.0
aF0.0
aF0.0
aF0.0
aF0.0
aF0.0
aF0.0
aF0.0
aF0.0
aF0.0
aF0.0
aF0.0
aF0.0
aF0.0
aF0.0
aF0.0
aF0.0
aF0.0
aF0.0
aF0.0
aF0.0
aF0.0
aF0.0
aF0.0
aF0.0
aF0.0
aF0.0
aF0.0
aF0.0
aF0.0
aF0.0
aF0.0
aF0.0
aF0.0
aF0.0
aF0.0
aF0.0
aF0.0
aF0.0
aF0.0
aF0.0
aF0.0
aF0.0
aF0.0
aF0.0
aF0.0
aF0.0
aF0.0
aF0.0
aF0.0
aF0.0
aF0.0
aF0.0
aF0.0
aF0.0
aF0.0
aF0.0
aF0.0
aF0.0
aF0.0
aF0.0
aF0.0
aF0.0
aF0.0
aF0.0
aF0.0
aF0.0
aF0.0
aF0.0
aF0.0
aF0.0
aF0.0
aF0.0
aF0.0
aF0.0
aF0.0
aF0.0
aF0.0
aF0.0
aF0.0
aF0.0
aF0.0
aF0.0
aF0.0
aF0.0
aF0.0
aF0.0
aF0.0
aF0.0
aF0.0
aF0.0
aF0.0
aF0.0
aF0.0
aF0.0
aF0.0
aF0.0
aF0.0
aF0.0
aF0.0
aF0.0
aF0.0
aF0.0
aF0.0
aF0.0
aF0.0
aF0.0
aF0.0
aF0.0
aF0.0
aF0.0
aF0.0
aF0.0
aF0.0
aF0.0
aF0.0
aF0.0
aF0.0
aF0.0
aF0.0
aF0.0
aF0.0
aF0.0
aF0.0
aF0.0
aF0.0
aF0.0
aF0.0
aF0.0
aF0.0
aF0.0
aF0.0
aF0.0
aF0.0
aF0.0
aF0.0
aF0.0
aF0.0
aF0.0
aF0.0
aF0.0
aF0.0
aF0.0
aF0.0
aF0.0
aF0.0
aF0.0
aF0.0
aF0.0
aF0.0
aF0.0
aF0.0
aF0.0
aF0.0
aF0.0
aF0.0
aF0.0
aF0.0
aF0.0
aF0.0
aF0.0
aF0.0
aF0.0
aF0.0
aF0.0
aF0.0
aF0.0
aF0.0
aF0.0
aF0.0
aF0.0
aF0.0
aF0.0
aF0.0
aF0.0
aF0.0
aF0.0
aF0.0
aF0.0
aF0.0
aF0.0
aF0.0
aF0.0
aF0.0
aF0.0
aF0.0
aF0.0
aF0.0
aF0.0
aF0.0
aF0.0
aF0.0
aF0.0
aF0.0
aF0.0
aF0.0
aF0.0
aF0.0
aF0.0
aF0.0
aF0.0
aF0.0
aF0.0
aF0.0
aF0.0
aF0.0
aF0.0
aF0.0
aF0.0
aF0.0
aF0.0
aF0.0
aF0.0
aF0.0
aF0.0
aF0.0
aF0.0
aF0.0
aF0.0
aF0.0
aF0.0
aF0.0
aF0.0
aF0.0
aF0.0
aF0.0
aF0.0
aF0.0
aF0.0
aF0.0
aF0.0
aF0.0
aF0.0
aF0.0
aF0.0
aF0.0
aF0.0
aF0.0
aF0.0
aF0.0
aF0.0
aF0.0
aF0.0
aF0.0
aF0.0
aF0.0
aF0.0
aF0.0
aF0.0
aF0.0
aF0.0
aF0.0
aF0.0
aF0.0
aF0.0
aF0.0
aF0.0
aF0.0
aF0.0
aF0.0
aF0.0
aF0.0
aF0.0
aF0.0
aF0.0
aF0.0
aF0.0
aF0.0
aF0.0
aF0.0
aF0.0
aF0.0
aF0.0
aF0.0
aF0.0
aF0.0
aF0.0
aF0.0
aF0.0
aF0.0
aF0.0
aF0.0
aF0.0
aF0.0
aF0.0
aF0.0
aF0.0
aF0.0
aF0.0
aF0.0
aF0.0
aF0.0
aF0.0
aF0.0
aF0.0
aF0.0
aF0.0
aF0.0
aF0.0
aF0.0
aF0.0
aF0.0
aF0.0
aF0.0
aF0.0
aF0.0
aF0.0
aF0.0
aF0.0
aF0.0
aF0.0
aF0.0
aF0.0
aF0.0
aF0.0
aF0.0
aF0.0
aF0.0
aF0.0
aF0.0
asVmu
p9
L0L
sb.