ccopy_reg
_reconstructor
p0
(clrsgd
LogisticRegressionSGD
p1
c__builtin__
object
p2
Ntp3
Rp4
(dp5
Veta
p6
F0.01
sVweight
p7
(lp8
F0.0
aF-0.0036105998745700274
aF0.0
aF0.0
aF-0.0047107016803412515
aF-0.004863676165364907
aF-0.019435794204601446
aF-0.00415176954227145
aF-0.032916549147638745
aF-0.008900115623741135
aF0.0051547751457547905
aF-0.0034988156185553525
aF-0.012340931186150296
aF-0.0047706419344833925
aF-0.004242406439630915
aF0.006180693998713494
aF-0.008228596442026961
aF0.0
aF-0.004985310066344911
aF-0.0022928342240332708
aF0.0
aF-0.004242406439630915
aF0.0
aF0.0
aF-0.004694694740867187
aF-0.003479705988883807
aF0.0
aF0.0
aF-0.0020661483912742503
aF0.0
aF-0.004431617689898613
aF0.0
aF-0.0047881743941526195
aF-0.003799533234201067
aF-0.008218849330416169
aF-0.004057786962012164
aF0.004022935095409903
aF0.0
aF0.0
aF-0.0013319528267265236
aF-0.003431663265111706
aF0.0
aF-0.00824235539994586
aF0.0030814403596772524
aF0.0
aF0.005863151263160025
aF-0.004469974447184833
aF-0.0035474922745426384
aF0.0
aF-0.004425481656695211
aF0.0
aF0.0005758204186582299
aF0.0
aF-0.009912825232217457
aF-0.0030952198651968566
aF0.009224109081247541
aF-0.004431617689898613
aF-0.014163057263014749
aF-0.00500042088423628
aF0.005586626792456568
aF0.0013233817849755934
aF-0.005952676231093631
aF-0.006462586596812449
aF-0.02162246035372054
aF0.0
aF0.0
aF0.0
aF0.0
aF0.0
aF0.006172342949204748
aF-0.008679159387904159
aF-0.0010277661487516276
aF-0.0013319528267265236
aF0.0
aF-0.0011504537555959912
aF0.007985091920582684
aF-0.005952676231093631
aF0.0014053145985633807
aF-0.0002208173282715986
aF-0.004057786962012164
aF0.0
aF0.0
aF0.0
aF-0.0035875724465839255
aF-0.004740665432638359
aF-0.0047706419344833925
aF-0.004477710129769936
aF-0.014079837207762447
aF-0.003532097099978785
aF0.0
aF-0.004781672691618224
aF0.005981364989372251
aF0.0
aF0.0
aF-0.007580768956534822
aF-0.005008692512099735
aF0.0
aF0.0012758196140443693
aF0.0
aF0.002293131379718435
aF-0.004678049529223424
aF-0.003450106877391546
aF0.0
aF-0.00974176938011707
aF0.0
aF-0.00478276100533607
aF-0.003644670729844629
aF-0.014432130339494517
aF0.0
aF-0.017602728511089363
aF0.0
aF0.0
aF-0.0044048318092144
aF-0.0029720857695832506
aF0.0025598944718106314
aF0.0
aF0.0
aF-0.013188326202372539
aF-0.003856900638512986
aF-0.004519271551174233
aF-0.003996705906074829
aF-0.013611605485426266
aF-0.006217591236178228
aF-0.02663514485917785
aF0.0
aF-0.0020869337164606933
aF-0.0029881437511366828
aF0.001121706648868424
aF0.0
aF0.006200735000017955
aF0.005102798514997886
aF-0.009511307367121751
aF0.0
aF-0.00875579284910024
aF0.0
aF0.0
aF0.009306526130515322
aF-0.004930611544842828
aF0.0
aF0.0
aF0.0
aF-0.01354977449219313
aF0.0022834788400359013
aF-8.709587821682904e-05
aF0.005154673084064752
aF-0.001031587861692913
aF-0.01842200483344194
aF0.0
aF-0.016002324803637894
aF0.006200735000017955
aF0.0
aF-0.0049629775261794675
aF0.0
aF0.00656655699712268
aF0.0
aF-0.011633714277632616
aF0.0
aF-0.0010438457771768635
aF0.0
aF0.005155055690921054
aF0.0013624494409233585
aF0.0
aF0.0
aF-0.047911715758556045
aF0.005157106486988629
aF0.0
aF-0.005282395017258981
aF-0.003671105377231829
aF-0.004836230508701309
aF0.0
aF-0.012688198765540405
aF-0.004684731444007355
aF-0.035945755129931416
aF0.003868041704943484
aF0.0
aF-0.0013319528267265236
aF-0.007027065146286582
aF-0.004034957773777353
aF-0.012205385130015121
aF-0.008153924456403101
aF0.0
aF-0.008287210297093643
aF-0.004431617689898613
aF0.0
aF-0.0137655118888902
aF0.005030643611594155
aF-0.004153887909984507
aF0.0
aF-0.007810819459896026
aF-0.016687593023611308
aF-0.0024288232661193376
aF-0.0040211219183093365
aF-0.038390664004022
aF0.0
aF-0.01629938720481925
aF0.0
aF-0.004835909793033352
aF-0.004718229722675484
aF0.0073370154724055016
aF-0.0054033485337049375
aF0.0
aF0.0
aF-0.0048709679234938364
aF-0.006224841403193548
aF0.0
aF0.0
aF-0.004954999095826407
aF-0.004925189967376675
aF-0.003909482501751054
aF0.0
aF0.009259603630287685
aF0.0
aF0.005313645554720355
aF0.0
aF-0.008989070116009974
aF0.0007870421674464993
aF0.0
aF0.0
aF-0.0037236366394181233
aF-0.022759802490631285
aF-0.008500785840362922
aF-0.012201244409858215
aF-0.000897726201765551
aF-0.004801214789282098
aF0.0005220313833076504
aF0.0
aF0.0
aF-0.004693563024337909
aF0.0038950204592751933
aF0.004573736055305791
aF0.00559357453346345
aF-0.00917518449372084
aF0.0
aF0.0
aF0.0
aF0.007985091920582684
aF-0.004954999095826407
aF0.0
aF-0.004679841185914146
aF-0.004836058856363392
aF-0.01588281658595708
aF-0.0042584608117905215
aF0.0
aF-0.008116594602459545
aF0.011018542889157181
aF-0.001031587861692913
aF0.0
aF-0.004416867182381016
aF0.0
aF0.012033159308672426
aF-0.004235477419812772
aF-0.009699692299336971
aF0.0
aF0.0004407783257999382
aF0.0
aF-0.0043483415578167185
aF0.00559357453346345
aF-0.002209987132237379
aF-0.003106363816119594
aF-0.003220058699583459
aF-0.018349623857863526
aF-0.00781165399690619
aF0.0
aF0.0
aF-0.0048910913408211154
aF0.0061731733520010825
aF0.0
aF0.005219772947599911
aF-0.002332184132332199
aF0.0
aF-0.0036835871999210948
aF-0.001534280234139992
aF-0.0028197732005098997
aF0.0
aF-0.003158455287940685
aF-0.0006228279289853776
aF0.01787354091957535
aF0.0
aF-0.004329745503646349
aF-0.00470117089876404
aF-0.0048828862186843635
aF0.0
aF-0.00684276813990118
aF-0.010000327152609985
aF0.0
aF-0.009352016237758018
aF0.0
aF0.0
aF-0.004749329832005206
aF-0.0023252720550663497
aF-0.004800906790366908
aF0.0
aF0.0
aF0.005263707223599942
aF-0.0043880829509308555
aF0.0
aF-0.0016597044203291158
aF-0.0033575952173539882
aF0.0017181474033300223
aF-0.004057786962012164
aF-0.014089304668915274
aF-0.004316308830044743
aF0.0
aF-0.00454257140125018
aF0.007669544073607494
aF0.007985091920582684
aF0.0
aF-0.003754714590716975
aF0.0
aF0.0
aF0.005586626792456568
aF0.005218014869566074
aF-0.007437506829926798
aF0.0
aF0.0
aF-0.0018280361232459268
aF-0.0037966798492957044
aF0.0010293746400127984
aF-0.008819656252576193
aF0.0
aF0.0
aF-0.00485028225369631
aF0.0
aF-0.0047212709042422476
aF0.0
aF-0.02293456290563179
aF-0.004919766779085141
aF0.0
aF-0.004236666566564295
aF0.0
aF-0.0006063187445293355
aF0.0
aF-0.0020024203979196052
aF-0.0048895383554312674
aF0.0
aF-0.003750720801492593
aF-0.04051588512857943
aF0.0
aF-0.009022216184201536
aF0.0
aF0.0
aF0.0
aF-0.004605587677129866
aF0.0
aF0.005416259671577488
aF0.00265302537896869
aF-0.009074333679323723
aF0.0
aF-0.005445300901006008
aF-0.007525253631360829
aF0.0024444300554101635
aF-0.01709231984110341
aF-0.013160309980094188
aF-0.002950154563144313
aF0.0
aF0.0
aF-0.0033376912952515904
aF-0.02284840073001001
aF-0.0033376912952515904
aF0.0
aF0.0
aF-0.009133941282225836
aF0.012072278999950975
aF-0.024785318875302997
aF0.0
aF0.0
aF0.0
aF-0.004229115570124552
aF-0.000785892141177844
aF0.00562500617223582
aF0.0
aF-0.00505168492068787
aF0.01493836697093721
aF-0.004211605003211256
aF-0.004355635245727351
aF-0.0026936614829239235
aF-0.003338103607611361
aF-0.004249565231514193
aF0.0
aF0.0
aF0.0
aF0.0
aF0.0
aF0.014399318395306053
aF-0.004628680796780002
aF-0.004908239633969555
aF-0.005618725831479393
aF-0.024315825806311343
aF-0.013592222482777734
aF0.0
aF-0.004847342383821051
aF0.0
aF-0.0032045545573081047
aF-0.0036835871999210948
aF0.0
aF-0.003272325874904243
aF0.0010869536418491852
aF-0.004091852127540523
aF-0.013396576483398235
aF-0.004926143089898762
aF-0.010811997661706246
aF0.0
aF0.0
aF-0.0048895383554312674
aF0.006532186777089725
aF-0.004964995080309575
aF-0.003644670729844629
aF-0.004950650058811302
aF-0.016046879271307466
aF0.0
aF0.0
aF0.006504578467654905
aF-0.007698904293237135
aF0.0
aF-0.008531468142180035
aF-0.003906475092586957
aF0.00473656080978627
aF-0.00941722211702387
aF0.0
aF0.01867826831433893
aF0.0
aF-0.0021109772822127384
aF0.0
aF0.0
aF0.0
aF0.0
aF0.0
aF0.006343810404932973
aF-0.03660021399350548
aF-0.007827891497060596
aF-0.02025271043723798
aF-0.00851992176014761
aF-0.004051911248311759
aF0.0
aF-0.008529432191804175
aF0.0
aF0.0
aF0.0
aF-0.0033720739805247237
aF-0.005180404801943672
aF-0.004229689934755868
aF0.005917767349253456
aF-0.0074920542007443774
aF0.0
aF-0.0044972231621019125
aF-0.0332562505418703
aF-0.004128066796985096
aF0.0019439081074696827
aF-0.016046879271307466
aF0.0
aF-0.003994475911625636
aF0.005196583912988093
aF0.0
aF-0.01015574564118073
aF-0.00023854878011418494
aF0.0
aF0.0
aF-0.004491257749155666
aF0.0012215722021672896
aF0.0
aF-0.0037649871791494752
aF-0.003052047737726056
aF0.0013314317038087154
aF0.008526835167573745
aF0.0073370154724055016
aF0.005917767349253456
aF-0.003158455287940685
aF-0.0037716814877066965
aF-0.012542713838935635
aF-0.0033481158704590343
aF0.0
aF-0.004801527430327496
aF-0.004583241305807911
aF-0.004145480478911604
aF0.0
aF-0.004680376859330129
aF0.0004280367669649123
aF0.0018971845501530517
aF-0.004249565231514193
aF0.0059452408349510676
aF0.0
aF0.0
aF0.0
aF0.0
aF-0.00425958513769832
aF0.007953363930549032
aF0.0
aF-0.0031774779574580848
aF0.0051326802603004085
aF-0.011510950128807141
aF-0.003588388192066925
aF-0.0039583670800356855
aF-0.00900351038529841
aF-0.005978052474005322
aF-0.004654667737391662
aF0.0
aF-0.004439467848482857
aF0.0018573147082468775
aF-0.004682120616451794
aF0.0
aF0.0
aF-0.006441062990637533
aF0.0
aF0.004099344637310206
aF-0.022995181458838856
aF0.0015088592354195098
aF0.021156781979222945
aF0.012748531168330777
aF-6.0914462396834275e-05
aF-0.0037236366394181233
aF0.0
aF0.0
aF0.0029067814217864337
aF-0.003644670729844629
aF-0.004322067222471847
aF0.0
aF-0.0033720739805247237
aF0.0
aF-0.004491257749155666
aF-0.004128066796985096
aF0.0
aF-0.006445158758484136
aF-0.029900161053866316
aF-0.006457364386282452
aF-0.009106963972629023
aF-0.009109330669663279
aF0.004383847491831325
aF-0.016405577079327983
aF0.0
aF-0.004925083557146612
aF-0.009078716855796398
aF0.0
aF-0.0047544815572541236
aF0.0
aF-0.0031774779574580848
aF-0.0016495915170547928
aF0.0
aF-0.006854014794310564
aF0.005146804748141137
aF0.0021677136379321966
aF-0.009902529536497954
aF0.006983331416717068
aF-0.00928316855251694
aF-0.005004405606683624
aF0.0
aF0.0
aF-0.004725481331462162
aF-0.012891162512951762
aF0.0
aF-0.004918273236372672
aF-0.01748062603910065
aF-0.011149232251581737
aF0.00549976662740174
aF0.0
aF0.0
aF0.008016394889992066
aF-0.00964828834304831
aF-0.009770687643618737
aF-0.004026511527149863
aF0.015985359795193922
aF-0.004522613619539179
aF-0.002594149591837167
aF-0.00460225593915216
aF-0.0036459936978547693
aF-0.06413215136489157
aF-0.0026936614829239235
aF-0.06253669016400197
aF0.0023031037104031503
aF-0.003553591552037805
aF-0.005554201481232091
aF-0.006620180138993002
aF-0.005121858876905791
aF-0.0037534417086217166
aF-0.03896733909702576
aF0.0
aF-0.004491257749155666
aF0.0
aF0.0
aF0.0
aF-0.00782826328533292
aF-0.0644646586994063
aF-0.004851705192237812
aF0.0
aF-0.009197375241094107
aF0.0
aF-0.017554329522459187
aF-0.010513909946042403
aF-0.004465984250467051
aF-0.0060346855919938235
aF0.0
aF-0.004958698520347589
aF0.0
aF0.0
aF-0.00470366626148434
aF0.0
aF-0.007834587349104987
aF0.0
aF-0.0055848223295969085
aF-0.027268295529454624
aF-0.0031236918320316875
aF0.0
aF0.0
aF0.0
aF0.0
aF-0.0022928342240332708
aF0.0031583974661851637
aF-0.0031319339281411806
aF-0.002462962190201044
aF0.01154572274579656
aF0.0
aF0.0007246935448867601
aF0.0
aF-0.003774790895181337
aF-0.03212097771131949
aF0.0005619013605953809
aF-0.004104065019806015
aF-0.0048636259932252545
aF-0.0019813915037507567
aF0.0
aF-0.007853137404425479
aF0.0
aF0.0
aF-0.003996705906074829
aF-0.0025765246095524144
aF-0.00015940902640347934
aF0.0
aF-0.0013319528267265236
aF-0.00824571231060691
aF-0.004580510341745997
aF-0.004768932638305996
aF-0.03304936747573636
aF0.0
aF-0.0175852131708446
aF-0.001942192651270002
aF-0.009041710657474899
aF-0.0013374061673267045
aF0.0
aF0.006315787803606612
aF0.0
aF0.0
aF0.0
aF-0.004469633021290019
aF0.0
aF0.005463566003186498
aF0.0
aF0.0017313230765312018
aF-0.006742748297304311
aF-0.004296327528384064
aF-0.002777774453942002
aF-0.019758783596290394
aF-0.0011975441630895968
aF-0.00752917628138029
aF0.0
aF-0.0038690218646052557
aF-0.00954156411857515
aF-0.006484738965411706
aF-0.004822894919357772
aF-0.01269295355422795
aF-0.020263325569096338
aF0.005191910845426734
aF0.010847332646191029
aF-0.014027455701411774
aF-0.007932371097136867
aF0.01850410400843441
aF0.0
aF0.0
aF0.0
aF-0.02005598482585244
aF-0.0008415518271555778
aF-0.009229536454360832
aF-0.14331400082966908
aF0.005164657349414402
aF0.005015720490997564
aF0.005191910845426734
aF-0.012098593184756999
aF-0.009692178508847616
aF0.014915861121850803
aF-0.0028932030274748254
aF-0.004969056279115957
aF0.0
aF0.008436860834278852
aF0.0
aF0.0
aF-0.00649591691326321
aF0.0
aF0.0
aF0.005154673084064752
aF-0.0050976792248179775
aF-0.00871561369701724
aF-0.006499847815752379
aF0.0
aF0.0
aF0.0
aF0.0054258644436508
aF0.0
aF0.00021155017229200924
aF-0.03535238560775211
aF-0.05218774855034942
aF0.0
aF-0.004760524389939367
aF-0.004760524389939367
aF0.0
aF0.0
aF-0.007151798360981668
aF0.0
aF0.005589036789215446
aF0.0
aF0.007388056913013282
aF-0.005000477540969681
aF-0.005406100993656509
aF0.0
aF-0.006325124943870175
aF0.0
aF0.0
aF0.013493108925455546
aF0.0
aF-0.0044493622094587
aF0.0
aF0.0
aF-0.003106363816119594
aF-0.011563577428718096
aF-0.0019550640012798936
aF-0.004988518487624683
aF-0.0022801772066336863
aF0.0
aF-0.03320422367699477
aF0.005478812200840499
aF0.017716801172881703
aF0.0
aF0.013113324253159416
aF-0.007515074784693883
aF0.0
aF0.0015834360117419925
aF0.0
aF-0.007427856980564621
aF0.0
aF-0.016917074192874883
aF0.0
aF-0.003856900638512986
aF-0.006658897083284138
aF0.006195404610214158
aF-0.0023068990115194215
aF0.009072169958479662
aF0.0
aF-0.015767190728152997
aF0.0004686173891576004
aF-0.016288716284478838
aF-0.03613515700653549
aF-0.004568616115066373
aF0.0
aF0.0
aF-0.0030871111819904297
aF0.0
aF-0.01778171439993362
aF-0.06444561820057096
aF-0.01851149415097197
aF-0.004294329823334534
aF-0.0035860318742872155
aF0.0
aF-0.004705744139911087
aF-0.010586024818589172
aF-0.017347843112837012
aF-0.0023003998141948694
aF0.006172342949204748
aF0.0
aF-0.003505276611141338
aF-0.009084227060900472
aF-0.004654795686221009
aF0.0012778005645518158
aF-0.009018598960621418
aF0.012183036984930586
aF0.005342630472165526
aF-0.0036841110905191667
aF-0.10253247483883854
aF0.005228250670954574
aF-0.008556243600609902
aF0.0
aF-0.016429418700578742
aF-0.03806731609073836
aF-0.006558117643870466
aF0.0
aF0.0034895993135777414
aF0.0
aF0.002341255948422119
aF-0.0061616835124975395
aF-0.015820616791379846
aF0.0
aF0.0006216015541493265
aF-0.009034652403780971
aF-0.004460806468227338
aF-0.0030923887595370094
aF-0.09103352680075087
aF0.0
aF-0.024878296925982632
aF-0.007994373701459946
aF-0.006118406801561238
aF-0.0042745007692614025
aF-0.04466147255784377
aF0.0
aF0.0
aF0.0
aF0.0
aF0.0
aF0.0
aF0.0
aF0.0
aF0.0037920352116893475
aF0.0
aF0.0
aF0.005937430988230505
aF-0.001541511099085919
aF0.0
aF-0.012149702252246767
aF-0.0048895383554312674
aF-0.02015710164075679
aF0.0
aF-0.02254235207342247
aF-0.008823532592451538
aF-0.02343488448991496
aF-0.012607000737412055
aF-0.0023593481386175352
aF-0.008904291112662482
aF-0.01784683692672695
aF-0.004184618988466255
aF0.0
aF-0.0012799381535031633
aF0.002292849256656115
aF-0.004922794038060775
aF-0.0033720739805247237
aF-0.004005756932058502
aF-0.14338269557822028
aF-0.008051660177021643
aF0.0
aF0.0
aF0.0
aF-0.004933521262235986
aF0.007318485281705791
aF-0.008908171271639759
aF0.0
aF-0.0042030591235846
aF-0.004295645408412425
aF-0.003779146730904256
aF0.0
aF-0.009999575805148285
aF-0.00719248539021743
aF0.0018262559652289893
aF0.0
aF-0.01789554505300331
aF-0.02040858959383695
aF0.0
aF-0.008565703980842774
aF-0.006444040763134335
aF-0.005794504413731606
aF-0.01695048993484255
aF-0.004185566172248382
aF-0.022242286301900897
aF0.0
aF-0.05526839783415683
aF-0.00945324968312215
aF-0.0019393410642130954
aF-0.0029824481613888094
aF-0.02606547723355189
aF-0.003868479389126546
aF-0.04233502141496352
aF-0.004428210143214465
aF-0.009196236813373705
aF-0.07180047079596072
aF-0.057184510641511956
aF-0.004619134704098648
aF-0.00282994562900973
aF0.005853707190079024
aF0.006382686691832579
aF-0.003909752703747384
aF-0.002851245216059326
aF-0.1434497747683117
aF0.0
aF0.0
aF0.0012926043805774508
aF0.0
aF-0.0077590266630359235
aF0.0
aF-0.01381764105878703
aF-0.009173110537769046
aF0.0
aF0.0
aF0.0
aF0.0
aF-0.04646581810572647
aF-0.0035296118637184147
aF0.004813785913590909
aF-0.008437926694903083
aF0.005110110723603545
aF-0.0074238675224045205
aF-0.038645845400061565
aF-0.007558991707665994
aF-0.003525978827924726
aF-0.059991378589780445
aF-0.025576664343152006
aF-0.006954529461258952
aF0.0
aF0.009374031356356474
aF-0.08170202763994022
aF0.0
aF0.0
aF0.0
aF0.0
aF-0.00481344837487934
aF-0.0037660113851858746
aF-0.004410729087673142
aF0.0
aF0.0
aF-0.004365293822009702
aF-0.003750720801492593
aF-0.00749525627005956
aF0.0
aF0.0
aF-0.0033720739805247237
aF0.0
aF-0.004084152990241888
aF0.0
aF0.0
aF0.001578226105448056
aF-0.027010535218729533
aF0.0
aF0.0
aF-0.004161090920169177
aF-0.0044595561546433024
aF-0.01880356934283186
aF-0.005568599737284258
aF-0.004034957773777353
aF0.005068552221133513
aF0.0
aF0.006200735000017955
aF0.0
aF0.0
aF0.0
aF0.010349017332415363
aF0.007420111532133124
aF0.0
aF0.005157106486988629
aF-0.0035860318742872155
aF0.014159216172248319
aF-0.008326971399673328
aF0.0
aF-0.010492736045783616
aF0.02426903704916955
aF-0.007875130920568376
aF-0.0024447857218837434
aF-0.007760046400556072
aF-0.0033377246473428384
aF-0.003947670432843836
aF-0.0008616210626688084
aF-0.015993989661750974
aF0.0
aF0.0
aF0.0
aF0.0
aF-0.004760524389939367
aF0.0
aF0.005157106486988629
aF-0.004460244246019382
aF0.0
aF0.0
aF0.006180693998713494
aF0.0
aF0.0
aF0.0
aF0.0
aF-0.004084152990241888
aF-0.004661365554180364
aF-0.02284443097328563
aF-0.0038692527875527206
aF-0.016751107538108996
aF-0.007084728847078977
aF-0.0036094627580379344
aF-0.0032770560413148617
aF0.0
aF0.0
aF0.0
aF0.0
aF-0.009587357979444728
aF-0.004495157836650644
aF0.0
aF0.0
aF-0.011681553629236723
aF0.0
aF-0.008114702140336482
aF-0.04663992259834989
aF-0.004958305523632091
aF0.0
aF-0.007531293595245545
aF-0.0044244652570571705
aF0.0017084700923469037
aF0.006003186571581969
aF-0.01693920014835231
aF0.015088251267715767
aF0.0
aF-0.016679971339616257
aF-0.008940143802957809
aF0.0
aF0.0
aF-0.003386522314854018
aF0.0
aF0.005128330034659593
aF0.0
aF-0.007068774976982866
aF0.0
aF0.005015720490997564
aF-0.005914168827020942
aF0.0
aF-0.017982135771281296
aF-0.009024767085534083
aF-0.012528554570046556
aF-0.003360454288645097
aF-0.004477710129769936
aF-0.00435018802855063
aF-0.004941751922848881
aF0.0
aF-0.008940329109654751
aF-0.004974140338149513
aF-0.006414641652349086
aF-0.003943065188138304
aF0.0
aF0.014939540673490194
aF0.0
aF-0.002111292393489979
aF-0.008909959798504
aF0.010388010440663205
aF0.006086141582456079
aF-0.004213099726500375
aF0.0
aF0.0
aF-0.00196458670863981
aF-0.004188874686521735
aF0.0
aF-0.0028486299876239966
aF0.0018334240124034768
aF0.0
aF0.0
aF0.005183583467733618
aF0.0
aF0.009002109685259689
aF-0.003864409497993522
aF0.0
aF0.0
aF-0.008127187747492378
aF-0.00490916819763537
aF-0.01342316314652114
aF0.0
aF-0.004918799889753293
aF-0.010659540339337827
aF-0.014311193726046632
aF-0.004853436583033226
aF-0.004741622334670949
aF-0.004126186371169397
aF-0.004840438702250941
aF0.0
aF0.013084910201875948
aF-0.0035474922745426384
aF0.005164657349414402
aF-0.018613089277508918
aF0.0
aF0.0
aF-0.0016139499185139471
aF0.005070796250518181
aF0.0
aF0.0
aF-0.013085115159647373
aF0.0
aF0.0
aF0.0
aF-0.004676737456509117
aF0.0
aF0.0
aF0.0
aF0.0
aF0.0
aF0.00129424661982946
aF-0.006884649778290382
aF-0.009297541084577258
aF0.0
aF0.0
aF0.0
aF0.0
aF0.009002109685259689
aF-0.004329745503646349
aF0.0
aF0.001314021901738562
aF0.0
aF-0.04531678545015563
aF-0.0033376912952515904
aF0.0
aF-0.003067950557087992
aF-0.009612362245063363
aF-0.0047212709042422476
aF0.0
aF-0.0033720739805247237
aF-0.008736128672541393
aF-0.6504356091311986
aF-0.13697005453016223
aF-0.008736251662483601
aF-0.031775785022502126
aF0.0
aF-0.003943065188138304
aF-0.0003541125450528828
aF-0.0002208173282715986
aF-0.004800906790366908
aF0.00562500617223582
aF-0.004213099726500375
aF-0.0016139499185139471
aF0.0005919783964934441
aF0.004257822333920977
aF-0.003338324988166639
aF-0.0040519691033482
aF0.007039187237844005
aF-0.0027554597202704856
aF0.0
aF-0.005512167820302113
aF0.0
aF-0.017504391809668864
aF-0.022890798670700187
aF-0.02411028536667258
aF-0.0020105609591546682
aF-0.012098593184756999
aF-0.0034599510268203534
aF-0.004153887909984507
aF-0.01762255437432754
aF0.0
aF-0.008749718560946187
aF-0.004460806468227338
aF0.006859569859860783
aF-0.008548374029660811
aF-0.004306696698245558
aF0.0
aF-0.00415176954227145
aF-0.018015311875613938
aF0.006939601775150905
aF0.0003708067671544038
aF0.0
aF-0.012854175656890909
aF-0.0029214556612252884
aF0.0024889066921892846
aF0.0
aF0.0
aF0.0
aF-0.008351734408741703
aF0.0
aF-0.004580686072691977
aF0.0
aF-0.000511009053273519
aF0.0
aF-0.0026936614829239235
aF0.0
aF-0.0001741917564336581
aF-0.01898582383331326
aF0.0
aF0.0
aF-0.003450106877391546
aF-0.03564729079033394
aF0.0
aF0.0
aF-0.003779146730904256
aF0.00656655699712268
aF-0.00118757707417771
aF-0.0010277661487516276
aF0.0
aF-0.006217591236178228
aF-0.014432130339494517
aF-0.02663514485917785
aF-0.014163057263014749
aF-0.0042584608117905215
aF-0.003644670729844629
aF0.002233196081672684
aF-0.00817791658999601
aF0.009306526130515322
aF0.005192446435340605
aF0.0
aF0.0
aF0.0013314317038087154
aF0.0
aF0.0
aF-0.0048895383554312674
aF-0.004322067222471847
aF-0.004963863117493265
aF-0.004963863117493265
aF-0.0481912060807032
aF-0.0048895383554312674
aF-0.003532097099978785
aF-0.006620180138993002
aF0.0
aF-0.0037716814877066965
aF0.0
aF-0.00974176938011707
aF-0.009218036616471584
aF0.0
aF-0.009622105051428735
aF-0.0033720739805247237
aF-0.004623282670381037
aF-0.0021868558789274956
aF-0.0001592969265894347
aF0.0
aF0.0
aF0.0
aF0.0
aF-0.0481912060807032
aF0.005705844466569652
aF0.0
aF-0.003943065188138304
aF0.011051725311527469
aF-0.0042584608117905215
aF0.0031600966064977156
aF-0.0035474922745426384
aF0.0
aF-0.05862355449483565
aF-0.00420459533114342
aF-0.0024304511929260616
aF0.0
aF0.0
aF0.0
aF0.0
aF-0.004709835192329587
aF0.0
aF0.006220868715308755
aF-0.004934306376669779
aF0.0028669696827900394
aF0.0
aF0.001915832348841507
aF-0.0047706419344833925
aF-0.004727973707216695
aF-0.04663992259834989
aF-0.007994373701459946
aF-0.007491560362904574
aF0.0015933863072154567
aF0.0
aF-0.004958698520347589
aF-0.010254633633028615
aF0.0
aF-0.00461530734632181
aF-0.008257931537439638
aF-0.004654795686221009
aF0.006253739894785795
aF-0.006553166684325559
aF0.0
aF0.0
aF0.0
aF-0.005861661275449617
aF0.005911013812914261
aF0.0
aF-0.012717472116942984
aF0.0
aF-0.006482841850443318
aF-0.012652898813931168
aF-0.014974398517299762
aF0.0
aF0.005192446435340605
aF0.0
aF-0.009227395345530957
aF0.0
aF0.0
aF0.0
aF-0.004922794038060775
aF-0.003987602743072468
aF0.0
aF0.0
aF-0.004800185358593112
aF0.0
aF-0.0050976792248179775
aF-0.005369374493508549
aF0.0
aF-0.00954156411857515
aF-0.004792099674322786
aF-0.015284807958903024
aF-0.012217308622085686
aF-0.015284807958903024
aF-0.01864183310976645
aF0.0
aF0.005509693483439337
aF0.0
aF0.0
aF-0.006095687740583235
aF0.0
aF0.0
aF0.006521852016308397
aF-0.007767514411964733
aF-0.006407013020484957
aF0.006220868715308755
aF0.0061731733520010825
aF0.0
aF-0.02254235207342247
aF0.0
aF0.005
aF0.007039187237844005
aF0.0
aF-0.0043483415578167185
aF0.0
aF0.0
aF0.0
aF-0.009106069764340726
aF-0.021495529610999053
aF-0.004705744139911087
aF-0.004619134704098648
aF0.0
aF0.009002109685259689
aF0.0
aF0.01688605407674241
aF0.005112583311378486
aF5.282357404584907e-05
aF-0.0016022772786540523
aF0.005589036789215446
aF-0.0033720739805247237
aF-0.02162246035372054
aF0.010808501520530705
aF-0.003608620519587984
aF-0.004979174589849786
aF0.0
aF0.0
aF-0.003906475092586957
aF-0.013418574117447029
aF-0.004057786962012164
aF-0.008223001503832338
aF-0.012134524111292483
aF0.0
aF0.0
aF0.0
aF-0.004910678281871968
aF-0.0021868558789274956
aF0.00656655699712268
aF-0.0033360315512220586
aF0.005598412560352621
aF0.0
aF0.0
aF0.0034895993135777414
aF-0.009070486835429964
aF-0.0043880829509308555
aF-0.013221972491037539
aF0.0
aF0.0
aF-0.009716746637622824
aF0.0
aF0.01867826831433893
aF-0.017554329522459187
aF0.0
aF0.0051547751457547905
aF0.005128330034659593
aF0.006200735000017955
aF0.0
aF-0.18568030184032971
aF-0.014231889711786593
aF0.0
aF-0.008615359600751679
aF0.0
aF-0.017854517204883784
aF-0.0030865612954006404
aF0.0
aF0.0
aF-0.011185024448368344
aF-0.00841193671417769
aF-0.008740485019728454
aF-0.009070486835429964
aF0.0
aF0.005497182569753235
aF-0.03055542335685126
aF-0.0011271426597912705
aF0.0
aF-0.0040211219183093365
aF0.0
aF0.00017262314347791727
aF-0.0038329056741449735
aF-0.008432565032219763
aF0.006303120627242546
aF-0.015820616791379846
aF-0.004643321332670428
aF-0.006024910547423658
aF-0.0075268604865240995
aF-0.00893247017536756
aF-0.004666878586192325
aF-0.002800294524729492
aF-0.30716999788504745
aF0.0
aF-0.003983343114113049
aF0.0
aF0.0
aF-0.010586881730392043
aF-0.004761885137025595
aF0.0
aF0.0
aF-0.009401086108092645
aF-0.003866032744288376
aF-0.004776881787229051
aF-0.008474841537751288
aF-0.004676737456509117
aF-0.008035443167708503
aF-0.023944058964492664
aF-0.013211928192053572
aF-0.0045167973497237295
aF-0.008259374018183047
aF-0.003506708414459645
aF-0.008079690911185006
aF0.0
aF0.0
aF0.00019520048856365955
aF0.0
aF-0.006207699677419517
aF-0.02409315223597044
aF-0.0053559044026994075
aF0.0
aF-0.004809546711580463
aF0.010812782879434909
aF0.005522282565854254
aF0.0
aF-0.008143765354285596
aF-0.004392114897187736
aF-0.00485028225369631
aF0.008526835167573745
aF0.0
aF-0.00355563991540504
aF0.0
aF-0.004329745503646349
aF0.0105937153615972
aF0.0
aF0.0
aF0.0
aF0.0
aF-0.0035474922745426384
aF0.0013624494409233585
aF0.005313645554720355
aF0.0
aF-0.008432565032219763
aF0.0
aF0.0
aF0.0
aF-0.022873610422642084
aF0.003433012998197629
aF-0.011415847282493142
aF-0.011846619640562918
aF-0.01275582425685039
aF-0.015817196479446773
aF0.0
aF-0.0006415490820132061
aF-0.003361880023706405
aF0.0
aF0.0
aF-0.018283486418642976
aF-0.00983793541800095
aF-0.004399346343695982
aF0.0
aF-0.004322067222471847
aF-0.0048895383554312674
aF0.0
aF-0.0036835871999210948
aF0.0
aF0.0
aF0.0
aF-0.005392999265316942
aF0.0024889066921892846
aF0.0
aF0.0
aF-0.007936013490838128
aF-0.004684731444007355
aF0.0069563561012551635
aF-0.004153887909984507
aF-0.0045603544132673726
aF-0.00499866346156948
aF0.0
aF0.0
aF0.0
aF0.0
aF-0.11361279325686227
aF0.0
aF0.0
aF-0.004122801629868649
aF-0.004684731444007355
aF0.0
aF0.017898705622139542
aF-0.0035860318742872155
aF-0.00485028225369631
aF0.0
aF-0.0027721497536890008
aF-0.009783650965271003
aF0.0
aF0.005032551883448531
aF-0.0033781645653782875
aF0.0
aF-0.0045909451002408945
aF-0.009074180894742809
aF0.0
aF0.0
aF-0.008379620466284269
aF0.0
aF0.0
aF-0.006958551741545539
aF0.0
aF-0.022220709734044913
aF-0.004236767492868598
aF0.0197859150069166
aF0.0054258644436508
aF0.006068006536699064
aF-0.008512207559684525
aF-0.030161524863379703
aF-0.05825001638559778
aF-0.002594149591837167
aF-0.0035860318742872155
aF-0.0035860318742872155
aF0.00431814599005397
aF0.005024691458315223
aF-0.004322067222471847
aF-0.004057786962012164
aF-0.04321946462760172
aF0.0
aF-0.003338324988166639
aF-0.009530718813022553
aF0.0
aF0.0
aF0.0
aF-0.012309150984906753
aF0.0
aF0.0
aF0.0
aF0.0
aF-0.0035860318742872155
aF0.0031600966064977156
aF0.0
aF-0.004012558377504803
aF-0.0027373873173681678
aF-0.026797177318695437
aF-0.01689217598681421
aF-0.007406748630264974
aF0.0
aF0.0
aF-0.0021752355359148214
aF-0.007827047067519126
aF-0.0045603544132673726
aF0.0
aF0.0
aF0.0
aF-0.011832619216370388
aF0.0
aF0.0
aF0.0
aF0.007039187237844005
aF-0.008339584552188882
aF0.005579182031484767
aF-0.019101941308033603
aF0.0
aF0.0
aF0.0
aF0.0
aF0.005154673084064752
aF0.0
aF0.0
aF0.0
aF0.0
aF0.0
aF-0.004184618988466255
aF-0.004994387849752344
aF0.0
aF-0.01644028050487443
aF-0.003553591552037805
aF0.0
aF-0.009727215216403583
aF-0.01537096352973414
aF-0.009090799932853867
aF-0.009478782250075465
aF-0.0038371325432122764
aF-0.004974741098070333
aF-0.00470117089876404
aF0.013073822208422736
aF-0.004807143994248626
aF-0.00490916819763537
aF0.0
aF-0.0064750893934469
aF0.0014149680294294176
aF0.0
aF-0.008885177553365755
aF-0.013983516618786683
aF-0.00485760232655465
aF-0.00942591372198128
aF0.0
aF-0.0009334471700245567
aF-0.0037716814877066965
aF0.0
aF0.0
aF0.0
aF0.0
aF-0.0030282572951117626
aF-0.009579603007784529
aF-0.00490803709988669
aF-0.004112983569082552
aF0.005525163140463686
aF-0.004918799889753293
aF0.0
aF-0.031775785022502126
aF-0.002800294524729492
aF-0.009632959171381399
aF-0.03494474950261562
aF0.0
aF0.0
aF0.0
aF0.0
aF0.0
aF-0.0290246208524836
aF0.0
aF0.0
aF-0.004891626927261633
aF-0.0035860318742872155
aF-0.0035860318742872155
aF-0.007581507991616467
aF-0.017797911300110193
aF-0.00965872845570577
aF-0.009550983587618451
aF0.0
aF0.0
aF0.0
aF0.0
aF-0.06101339152032699
aF-0.0029881437511366828
aF-0.0030670814205375845
aF-0.021800781505688867
aF0.0
aF0.0
aF-0.004322067222471847
aF-0.003866032744288376
aF0.0054258644436508
aF-0.00484960286149664
aF0.0
aF-0.008615359600751679
aF0.0
aF0.0
aF0.0
aF0.009002109685259689
aF-0.0008449816622986932
aF0.0
aF-0.00420459533114342
aF0.0
aF-0.010197531814085182
aF-0.0037716814877066965
aF0.0
aF-0.007093088700918947
aF-0.0005475757451744742
aF-0.041565861870867894
aF0.0
aF-0.0018948174204632667
aF-0.002800294524729492
aF0.0
aF-0.00478276100533607
aF-0.0035474922745426384
aF-0.004638451381411704
aF0.0
aF-0.008850642341119654
aF0.0
aF-0.01065115802676595
aF0.0
aF-0.0030871111819904297
aF-0.05828019511538876
aF-0.014412337073626276
aF0.0
aF-0.0017128496616188671
aF0.0
aF-0.00870480088988515
aF0.0037903982724553685
aF-0.0017364283260839298
aF0.004291988979255252
aF0.0
aF0.0011756099112677576
aF0.0
aF-0.010019900845254021
aF0.0
aF-0.004219711337936476
aF0.0
aF-0.005771152673718119
aF0.0
aF-0.0030336871963380484
aF-0.0022801772066336863
aF-0.004827548313767926
aF-0.004996567755207725
aF-0.0021610336112359236
aF-0.0011287549095080293
aF0.0
aF-0.01256484965721898
aF-0.002859903399125434
aF-0.0018317441189798808
aF-0.03086469778921855
aF0.0
aF-0.004792092277646243
aF0.0
aF0.0
aF-0.01381069018360074
aF-0.00478276100533607
aF0.0
aF-0.003557358285817437
aF-0.0040211219183093365
aF-0.004979174589849786
aF0.0
aF0.0
aF0.0
aF0.0
aF0.0
aF-0.009467883865971978
aF0.005589036789215446
aF0.0
aF-0.004109834415768785
aF0.0010009251332702275
aF-0.0029602713972181434
aF0.0005086999653840128
aF-0.004538929030166327
aF0.006180693998713494
aF0.006510183046421574
aF0.0031582429313413477
aF0.0
aF-0.007828319121035137
aF-0.004958305523632091
aF-0.004460320528987791
aF0.0
aF-0.00478447224887415
aF0.0
aF-0.06872158763300426
aF-0.003604043361985924
aF0.014147935714205898
aF0.0
aF-0.01014967329247423
aF0.0006162382707247333
aF0.0
aF-0.004963863117493265
aF0.0
aF0.0
aF-0.007964078407706077
aF-0.0030336871963380484
aF-0.013394203955625579
aF0.0
aF0.0
aF-0.01449831112175591
aF0.0
aF-0.0034093556178625695
aF0.005456353345482024
aF-0.015347204954926825
aF-0.021757117402408373
aF0.0
aF0.004054500652280927
aF0.0
aF-0.01021496427891029
aF0.0
aF-0.008117106718366905
aF0.0
aF0.0
aF0.011051725311527469
aF-0.004495157836650644
aF-0.004696022153104187
aF-0.004807143994248626
aF0.0
aF0.0
aF0.0
aF0.0007015495894879577
aF0.0017333279871688018
aF0.0
aF-0.0091407651563536
aF-0.005872883870905761
aF-0.004740665432638359
aF0.0
aF-0.0075268604865240995
aF-0.004322067222471847
aF0.0
aF-0.003608620519587984
aF-0.012717472116942984
aF-0.014553513408348751
aF0.0
aF-0.004823279834421435
aF-0.00415855793750574
aF-0.00425958513769832
aF0.0
aF-0.004954999095826407
aF-0.004883991774447087
aF0.004459623640572226
aF-0.004229115570124552
aF0.0
aF0.005192446435340605
aF-0.0007116898787867224
aF0.0
aF-0.0038781472673084494
aF0.0015530779803368134
aF0.0025982919564940467
aF-0.014406374864425968
aF0.0
aF0.0
aF-0.018577758205474575
aF0.0
aF0.0
aF-0.02307463073001271
aF0.0
aF0.001922383632642597
aF0.0
aF0.0
aF-0.003067950557087992
aF0.0
aF0.0018587978500477743
aF-0.004836058856363392
aF-0.008736128672541393
aF-0.009177800221654934
aF0.0
aF0.0
aF0.0
aF-0.004790570749964418
aF-0.0040708324774020675
aF0.0
aF-0.0045837889630285025
aF0.0
aF0.012146607124770854
aF0.014610100859382434
aF-0.03244688382950502
aF-0.004669731005226162
aF0.010059132376008594
aF-0.00403074031982916
aF0.0
aF-0.009214520039132782
aF0.0
aF0.0
aF-0.004475529173329145
aF0.005791127841974536
aF0.005164657349414402
aF-0.05862355449483565
aF0.0
aF-0.020821101175119847
aF-0.0013319528267265236
aF0.005015720490997564
aF-0.012652898813931168
aF-0.06234786841654902
aF-0.014519061459861142
aF0.0
aF0.0
aF-0.01564283133239447
aF0.0
aF0.0
aF-0.004495157836650644
aF0.0
aF-0.009399315742095477
aF0.0
aF-0.004891626927261633
aF-0.013593235425379638
aF-0.005134362030379166
aF-0.004840438702250941
aF0.0018462556506975264
aF0.0012077257795142038
aF-0.0032906788378165475
aF0.0
aF0.0025695205895851564
aF0.005579182031484767
aF0.006343810404932973
aF-0.0076963666091373565
aF0.0
aF-0.04598393941081084
aF-0.004246754549398272
aF-0.007708926340067909
aF0.0
aF-0.004822388692099654
aF-0.009499124098346357
aF0.005525163140463686
aF-0.006358445579547274
aF-0.006581136634701166
aF-0.004541032530243607
aF-0.004371356403999387
aF0.006049472890716667
aF-0.002971802534749086
aF0.0
aF-0.004994387849752344
aF-0.0029250279220491074
aF-0.0035860318742872155
aF-0.013637958790700944
aF-0.008692146657840088
aF0.0
aF-0.0032045545573081047
aF0.002820218122681772
aF0.0
aF-0.004876899900101893
aF-0.004974140338149513
aF-0.013321133709496894
aF0.0054258644436508
aF-0.0029075848855562953
aF-0.02307857288533924
aF-0.004934306376669779
aF0.0
aF-0.009404998147340495
aF-0.004634360249075824
aF-0.005897936251910309
aF0.0
aF0.0
aF0.0
aF-0.007417044511194938
aF-0.008556431698750805
aF-0.004517678403787309
aF-0.0045603544132673726
aF0.0
aF0.0
aF-0.004679841185914146
aF0.0
aF-0.004605587677129866
aF0.0
aF0.0034386755041799395
aF-0.005019290718685322
aF0.0
aF0.006705392654187404
aF0.0
aF0.0
aF-0.0023593481386175352
aF0.0
aF-0.006024910547423658
aF0.005450865968250023
aF0.0
aF-0.015695838992806917
aF-0.0214685828672431
aF-0.005369374493508549
aF0.0
aF-0.004547820795278419
aF0.0
aF-0.0039055260664382107
aF0.0
aF-0.008042650111193282
aF-0.003532097099978785
aF0.0
aF-0.004669843116107797
aF0.0
aF0.00916789768561571
aF-0.004792092277646243
aF-0.004990727968105813
aF-0.004803288554811701
aF0.0
aF0.005599256074911348
aF-0.007164304377927764
aF-0.009622105051428735
aF0.0
aF0.0
aF-0.00939624538610142
aF0.0
aF0.014939540673490194
aF0.0
aF-0.008470395333525702
aF0.0
aF-0.0031653095348138423
aF-0.021495529610999053
aF0.0
aF0.005705844466569652
aF-0.005872883870905761
aF-0.0033775020518899013
aF0.0
aF0.0
aF0.0
aF0.009002109685259689
aF0.0
aF0.0
aF0.01168729628121919
aF0.0
aF-0.001534280234139992
aF-0.009434770212811684
aF-0.003431663265111706
aF-0.0035860318742872155
aF-0.003119102268160643
aF0.0
aF0.0
aF-0.0030282572951117626
aF-0.00026131605446488414
aF0.0
aF0.0009196089936096908
aF-0.002094321726294076
aF0.0
aF-0.023771246530964085
aF0.0
aF0.0
aF0.0
aF-0.0023971650890991076
aF-0.003843296627306453
aF0.0
aF0.0
aF-0.008515613100592765
aF0.0016717615053910562
aF0.0
aF0.0
aF0.0
aF-0.011832619216370388
aF-0.007808411284036544
aF0.0
aF-0.011579498869121109
aF0.005156506491350207
aF-0.00442770720932751
aF-0.009417121254411895
aF0.0
aF-0.009494603781223639
aF0.010459322004386658
aF0.00397689346464907
aF0.0
aF0.0
aF0.0
aF0.008526835167573745
aF0.0
aF-0.004669559581131223
aF0.0
aF-0.004800185358593112
aF0.0
aF-0.009790200931102416
aF0.0
aF0.0
aF-0.0047861269359124325
aF0.0
aF0.0
aF0.0
aF0.0
aF-0.004054902819757995
aF0.0
aF-0.004236552916339327
aF0.0
aF-0.0035474922745426384
aF-0.004950650058811302
aF-0.00972236155696904
aF0.0
aF0.014640017878711394
aF0.0
aF0.0
aF-0.012988801002729625
aF-0.010557704532635478
aF0.0
aF0.0
aF-0.003525978827924726
aF-0.004797555430518349
aF-0.0042030591235846
aF-0.009129477287110697
aF0.0
aF-0.0017453618090663096
aF-0.0021068144425788367
aF0.0021165820097760668
aF-0.006071197261310835
aF-0.0087611953910099
aF-0.0033963473894750946
aF-0.003361880023706405
aF0.0
aF0.0
aF-0.012915342206969783
aF-0.014651015877355128
aF-0.004863676165364907
aF0.0
aF-0.0016546193845433823
aF-0.0048895383554312674
aF0.006389025954277058
aF-0.12574329071878254
aF-0.09661896473319129
aF-0.017343254304439764
aF-0.0333487191352735
aF0.0
aF-0.004229115570124552
aF-0.00478276100533607
aF0.006172342949204748
aF-0.027036297863889034
aF-0.013292387607681921
aF0.0
aF-0.002069965718435097
aF-0.004431617689898613
aF0.0
aF-0.005020327889418765
aF-0.002366542357756237
aF-0.004934306376669779
aF0.006068006536699064
aF-0.004322067222471847
aF-0.007858906819455004
aF0.0
aF0.005156506491350207
aF0.0
aF0.006510183046421574
aF0.0
aF-0.01783542477578752
aF0.0
aF-0.009298799642385999
aF-0.005814780981357518
aF-0.12448703151711644
aF-0.008812979219177272
aF-0.004580510341745997
aF-0.00470117089876404
aF-0.004348581066835775
aF0.0
aF-0.00478447224887415
aF0.0
aF0.0
aF-0.012217308622085686
aF0.0
aF0.0
aF0.0
aF-0.0035850453628093713
aF0.0
aF0.0
aF-0.004322067222471847
aF-0.009218036616471584
aF0.0
aF-0.004740141110526773
aF0.0
aF-0.00450683510704771
aF0.005853707190079024
aF0.0
aF0.0
aF-0.004012558377504803
aF0.0
aF-0.0048431381866124446
aF0.005151544291161576
aF0.0
aF0.0
aF-0.01742533831138333
aF0.005579182031484767
aF-0.0039018283681193765
aF0.0003092412993724305
aF-0.004998504281743136
aF0.0
aF0.0
aF0.0
aF0.0
aF0.0
aF-0.004891626927261633
aF0.0
aF-0.004562959854656629
aF-0.012955824495854277
aF-0.004719451023129416
aF0.005522282565854254
aF-0.00485760232655465
aF0.0
aF0.006180693998713494
aF-0.003991828949158362
aF0.00627430635506439
aF-0.001225166042549874
aF0.003979825431332214
aF-0.020109163113340836
aF0.001422199198802562
aF-0.012983239234095991
aF0.0
aF-0.10237674701369054
aF0.0
aF-0.003418163857218368
aF-0.00214532821465213
aF-0.008789439331031476
aF0.0
aF0.0
aF-0.0044777576275946375
aF-0.02940204910514222
aF0.006705392654187404
aF0.0
aF-0.003158455287940685
aF0.0
aF-0.00841193671417769
aF-0.006553166684325559
aF0.0
aF-0.009285939458491294
aF0.0
aF-0.004742624905024188
aF0.0
aF0.0050619098409782435
aF-0.00936104477471995
aF-0.02567286004380252
aF-0.004883991774447087
aF0.0005919783964934441
aF-0.005181522514344547
aF-0.001225166042549874
aF0.0
aF-0.00951689249511835
aF0.006303120627242546
aF-0.0038810841440956325
aF0.0
aF0.001195730038616409
aF0.0
aF0.005263707223599942
aF0.0
aF-0.0042043739817076336
aF0.0
aF-0.0036835871999210948
aF0.005917767349253456
aF0.0
aF-0.004770178889314239
aF0.0032172853277627304
aF0.0
aF-0.01838909742280117
aF-0.018349623857863526
aF0.0
aF0.0
aF0.0030982906812476118
aF-0.04321946462760172
aF0.0
aF-0.011147306001626783
aF0.0
aF-0.004910678281871968
aF-0.017854517204883784
aF0.006180693998713494
aF-0.004770178889314239
aF-0.008390420418780187
aF-0.004555977714952221
aF-0.004495157836650644
aF0.0
aF-0.008996695005466206
aF0.0
aF0.005015720490997564
aF0.0
aF-0.00781165399690619
aF-0.008636010105495362
aF0.0026933047040876425
aF0.0
aF0.0
aF-0.022510768869164255
aF-0.00909101055774513
aF-0.004963863117493265
aF-0.0048895383554312674
aF0.0
aF-0.02431420649103539
aF0.0
aF-0.008184905469706492
aF0.0
aF0.0
aF0.00916789768561571
aF-0.0047544815572541236
aF0.0
aF-0.007938110387850777
aF-0.02411028536667258
aF-0.00643033168394982
aF0.0017350675842098982
aF-0.004950650058811302
aF0.0
aF-0.018399078249558963
aF-0.028210093260208433
aF-0.004761279880144139
aF-0.005490673435265947
aF0.0
aF0.0
aF-0.004925735140680048
aF-0.013944742576201558
aF0.004054500652280927
aF-0.08179022993520553
aF0.0
aF-0.014974398517299762
aF0.001922383632642597
aF-0.010254633633028615
aF-0.02197530971578749
aF0.0
aF-0.004206893340051297
aF-0.05105802427273936
aF-0.0043818312850468525
aF-0.004416867182381016
aF0.002233196081672684
aF-0.0008059610717790174
aF-0.004836058856363392
aF0.0
aF0.005579182031484767
aF-0.018003314890947822
aF0.0024132767336728918
aF-0.012488812440981689
aF-0.018613089277508918
aF0.0
aF-0.007861204280756744
aF0.0011359845686792925
aF0.0
aF0.009002109685259689
aF0.0015678252654840528
aF-0.0026936614829239235
aF0.0
aF-0.009352016237758018
aF-0.008327821088040928
aF-0.01255838582980421
aF0.0
aF0.005598412560352621
aF-0.007423051647259818
aF0.003972966742948116
aF0.0017057811834892598
aF-0.014400516721102884
aF-0.0036459936978547693
aF0.004980987766950352
aF0.0
aF-0.0047706419344833925
aF-0.009943657812899872
aF0.0
aF0.0
aF-0.001557676914244631
aF0.0
aF-0.006588224128733406
aF-0.0014031591294341333
aF-0.0058312967242608055
aF-0.00478447224887415
aF0.0
aF-0.0047544815572541236
aF0.0015088592354195098
aF-0.004128066796985096
aF0.0
aF-0.004322297027878699
aF0.0
aF0.014159216172248319
aF0.0038005916970847956
aF-0.0030699274206413612
aF-0.008406065851469862
aF0.0
aF-0.013418574117447029
aF-0.009518544457181113
aF-0.009018598960621418
aF-0.004693563024337909
aF0.0
aF0.0
aF0.00656655699712268
aF0.0
aF-0.021234993989200167
aF0.0
aF-0.0017018556043806655
aF0.010808501520530705
aF-0.00461530734632181
aF-0.07375478676749699
aF0.0
aF-0.004653697252737891
aF-0.0038824402149373284
aF-0.02850456408880636
aF-0.01709231984110341
aF-0.00499866346156948
aF0.0
aF0.0
aF-0.05461834752845877
aF-0.016656486245664903
aF-0.004155116640258331
aF-0.0033575952173539882
aF0.0
aF-0.007349623624816785
aF-0.011765659357423543
aF0.0
aF-0.0033781645653782875
aF-0.004392114897187736
aF-0.003353822386956067
aF0.005958262071598939
aF-0.011821322150015048
aF-0.01371170019909394
aF-0.009549458736137412
aF0.0
aF-0.004675932685905815
aF-0.004669843116107797
aF0.01165506849068932
aF0.0
aF-0.0048828862186843635
aF0.0
aF-0.004908239633969555
aF-0.004908239633969555
aF0.0
aF0.0
aF0.005263707223599942
aF0.0
aF0.0
aF-0.004792092277646243
aF0.0
aF-0.004669843116107797
aF-0.00890916283471482
aF0.006180693998713494
aF0.007944830792728551
aF-0.004057786962012164
aF0.00532116354168121
aF0.0
aF-0.004500131266495475
aF-0.017543210130108764
aF-0.004329745503646349
aF0.0
aF0.0
aF-0.009960187583007
aF-0.00468091057964556
aF0.006200735000017955
aF0.0
aF-0.005331379352579539
aF-0.00385665888177378
aF0.0
aF0.0
aF0.0
aF-0.01882685267554391
aF0.005580396719192327
aF-0.0067749241343175535
aF-0.009612362245063363
aF-0.004804892464343323
aF0.005148041549230938
aF-0.004933268025980724
aF-0.008937634666921743
aF-0.004978887269791625
aF-0.00470117089876404
aF0.0
aF0.0
aF0.0
aF0.0
aF0.005579182031484767
aF-0.0030317007995612094
aF0.0
aF-0.0036195368086048762
aF0.0
aF0.0
aF-0.004491257749155666
aF0.0
aF-0.007360720295960692
aF0.0
aF-0.0038329056741449735
aF-0.0047544815572541236
aF0.0013324586715994886
aF-0.0014898291896909004
aF0.0
aF0.0
aF-0.017242746599859374
aF0.0
aF-0.004974741098070333
aF-0.004491257749155666
aF0.0
aF0.013612522351102576
aF-0.009220442449938273
aF0.0
aF-0.0041816551604413246
aF-0.004822388692099654
aF-0.004547820795278419
aF0.0
aF0.0
aF0.0
aF0.0
aF-0.007884460939814092
aF-0.0029849136833591636
aF0.0052636470204634345
aF0.0
aF0.0
aF-0.0047544815572541236
aF0.0
aF0.01909222609760466
aF0.005263707223599942
aF-0.0037716814877066965
aF0.0
aF0.0
aF-0.004488134430024489
aF-0.004034957773777353
aF-0.0047544815572541236
aF0.005958262071598939
aF0.0
aF-0.010957379585646732
aF-0.004538929030166327
aF-0.0019889515848234294
aF-0.008202858751095329
aF-0.008853548128447257
aF0.005192446435340605
aF0.0
aF-0.004219711337936476
aF0.0
aF-0.009106069764340726
aF0.005192446435340605
aF-0.004982845147686429
aF0.0
aF-0.0041204886007375876
aF0.0
aF-0.0035474922745426384
aF-0.0059297178468245846
aF0.0
aF0.005525163140463686
aF-0.004495157836650644
aF-0.004666878586192325
aF0.0
aF0.0
aF-0.008380367736013819
aF0.0
aF-0.00553770887804495
aF-0.004778448613744732
aF-0.0031774779574580848
aF0.005497182569753235
aF-0.002851245216059326
aF0.0
aF0.0
aF-0.007994842844484134
aF-0.00470117089876404
aF-0.004329745503646349
aF-0.004229115570124552
aF0.0
aF-0.022484777969194233
aF-0.0043227952024565905
aF0.0
aF0.005579182031484767
aF0.005911013812914261
aF0.0
aF0.0
aF-0.009675911996834373
aF0.0
aF0.0
aF-0.003644670729844629
aF0.0
aF-0.011592913001720315
aF0.0
aF0.00014768269911030057
aF-0.011846329148899593
aF-0.04842721032316512
aF0.0
aF-0.004034957773777353
aF-0.0037716814877066965
aF0.0
aF-0.013732447435413653
aF0.0
aF0.0
aF-0.004488134430024489
aF-0.004329745503646349
aF-0.0047544815572541236
aF-0.015317947414994539
aF-0.0038111874909431687
aF-0.0053174540675523475
aF-0.00468091057964556
aF-0.0048636259932252545
aF0.0
aF0.0
aF0.0
aF0.0018782950963202193
aF0.0
aF-0.0038111874909431687
aF-0.004918799889753293
aF-0.004954999095826407
aF0.0
aF-0.004874380601709749
aF0.0
aF0.009002109685259689
aF0.0
aF-0.01379262103174117
aF-0.0026441514223526693
aF0.0
aF-0.008098269641783269
aF-0.022841073110698717
aF0.0
aF0.0
aF-0.008196071655754686
aF-0.010785398540882403
aF-0.04723974311655223
aF0.004162574050591376
aF-0.023658065381048168
aF0.004710908582052736
aF-0.08005644627989839
aF-0.0037283651788329987
aF0.004939250192488379
aF-0.0036309151366322174
aF-0.0119880578717506
aF0.010930797082667684
aF0.0
aF0.0
aF-0.08264074425043358
aF-0.004347370921047551
aF0.0
aF-0.00023186681944242088
aF0.0
aF0.004232241050159266
aF-0.09325877747106125
aF-0.011394641897443472
aF-0.011332494425095057
aF-0.021868125397039025
aF-0.0005588504696608329
aF-0.08993586689571931
aF0.0
aF-0.001305758704848272
aF-0.0017151558054994062
aF0.0
aF0.0
aF-0.0025765246095524144
aF0.0035773609977562152
aF0.0
aF0.0
aF-0.012782320528763536
aF-0.005002441658689849
aF0.0037477270317429483
aF-0.0017710050157843426
aF-0.0357679837669761
aF0.012372108304499457
aF0.007985091920582684
aF0.0031652083052976093
aF-0.004706077949668513
aF0.0
aF0.0
aF-0.0016671877923699133
aF-0.006603784057640311
aF-0.010920634323914154
aF-0.009393468356860382
aF-0.0015435555909952148
aF0.001987075806938682
aF0.0
aF0.0141145155089697
aF0.007529472983941729
aF0.006319394732661413
aF-0.04839649844561479
aF0.005636613251453248
aF-0.028295003655456247
aF-0.0366406273326519
aF-0.0011753251006486327
aF0.0016210983784333921
aF0.0
aF-0.011877697627005796
aF-0.014266981198034196
aF0.00138199966839024
aF0.00586595966746121
aF0.0
aF0.0
aF0.0031559491128802723
aF-0.011875186087845211
aF-0.0002038980902709461
aF0.0005158672036967202
aF0.0
aF0.0
aF0.002202510486573187
aF-0.016730953039998706
aF-0.00905115607959612
aF0.005589036789215446
aF0.007210964352066271
aF-0.0019597023921293973
aF0.00562551148028179
aF-0.006206350115977064
aF-0.0550665334912453
aF-0.02000261348777644
aF0.0092882572940261
aF0.0
aF-0.013464634302411162
aF-0.004425545848264246
aF-0.009825515028534345
aF0.0012821619141395863
aF0.000869112563192144
aF-0.0039761143019870345
aF0.003343815332571873
aF0.018667088260602725
aF-0.004623282670381037
aF0.0
aF-0.0135870244979386
aF-0.01005095224225687
aF-0.0008879689951352913
aF-0.003277024795992793
aF-0.03370683155779977
aF-0.0030865612954006404
aF-0.010702568651996458
aF-0.004574005038227386
aF-0.00011622308848907345
aF0.007021727417127248
aF0.002794518394607723
aF-0.0029935658951215503
aF0.004135911328647736
aF-0.00020766633616047295
aF0.002842877292413724
aF0.0
aF0.0
aF0.0
aF0.0026572625284614474
aF0.0005621991192362764
aF0.0009333149967113954
aF0.0
aF-0.00961072474725524
aF-0.0020275487727266037
aF-0.05904086285998631
aF0.00744346230658676
aF0.0021372542080997947
aF0.01014124679233089
aF-0.004416675135503214
aF-0.010495270764657571
aF-0.002091754115258711
aF-0.009363131751826155
aF-0.0022244135829127443
aF0.0
aF0.0020285652458655297
aF0.0
aF0.0
aF-0.0030336871963380484
aF-0.004219711337936476
aF-0.00511090882920533
aF-0.0026900542969357606
aF0.0
aF0.0
aF-0.00902655005507586
aF-0.01663285211838899
aF-0.005114268732338453
aF-0.005589815140096475
aF-0.010245533648348794
aF-0.003506708414459645
aF0.0
aF-0.008630851923142068
aF-0.007630558126521056
aF0.0038441150189505407
aF0.0
aF-0.012895751982831022
aF0.0017036465046460223
aF-0.0035308235722486788
aF0.008046638785520985
aF0.0012457401168016239
aF0.005579182031484767
aF-0.011816914970171535
aF0.0
aF-0.020377425455454908
aF-0.007788913890998548
aF-0.00796018711658587
aF-0.0018668943400491135
aF-0.006760901322077121
aF-0.004190553891353087
aF-0.005415217398334206
aF-0.010003908662747094
aF-0.03288277825715077
aF0.0
aF-0.0028310086731834915
aF-0.005313864402971735
aF-0.00212340534134409
aF-0.014540318118215911
aF0.002213165635837722
aF0.0
aF-0.009153125569605035
aF-0.0045476401886211
aF-0.0010099214237650062
aF-0.004039933746381112
aF-0.03872089914818057
aF0.0
aF-0.004725481331462162
aF0.0
aF-0.014853370627577273
aF0.0
aF-0.0030282572951117626
aF-0.008179007543046637
aF0.0
aF0.0
aF0.0
aF-0.010596276408685212
aF-0.004373519573567805
aF0.008526835167573745
aF0.0032751825867069514
aF0.0
aF-0.05648598292020543
aF0.0
aF-0.0161901443505369
aF0.0002750582724362447
aF0.0
aF0.0
aF-0.011889019076653242
aF0.004561984525392765
aF-0.005853655686738721
aF-0.0023593481386175352
aF-0.001983887973869559
aF0.0
aF-0.0025493463022802916
aF0.0
aF0.0025146020559581256
aF-0.0020105609591546682
aF0.0
aF0.018407777116693086
aF-0.0022524917453911005
aF-0.000712890043662687
aF0.0
aF0.0
aF-0.0011451275854364993
aF0.007021727417127248
aF-0.0013319528267265236
aF-0.010778883336404027
aF0.0022154471842451033
aF-0.0015136759964036923
aF-0.002664654245201337
aF0.0036236952018455547
aF-0.027189564824036033
aF0.008526835167573745
aF-0.004933521262235986
aF-0.00845395988349211
aF-0.0009082065060487215
aF-0.006344182842384578
aF0.0012323080163848476
aF0.012238995194327609
aF0.015308591733581085
aF0.006705392654187404
aF0.005754912844844584
aF0.0009417987197232236
aF0.0
aF-0.07082309187244575
aF0.0032609260081541986
aF-0.00555053366368461
aF-0.026863843808684795
aF0.0
aF-0.0023593481386175352
aF-0.002923003276380203
aF0.0004289165304205266
aF0.0014247900956879432
aF-0.008988834600065594
aF0.0
aF-0.0030282572951117626
aF0.00956950245778138
aF-0.0030865612954006404
aF-0.012236701593976943
aF0.0
aF0.003947754434382073
aF0.0
aF0.0
aF0.0
aF-0.002363540688419437
aF0.0
aF-0.006344983643058764
aF0.0007148323025510355
aF0.006688733821036743
aF-0.0026866545765567825
aF-0.004236536701804326
aF-0.0012159190413412267
aF-0.007096893529212851
aF0.0
aF0.0
aF0.0
aF-0.016887836508053318
aF-0.008146030060284894
aF-0.002497244719517004
aF-0.010309091842229797
aF0.004331142714287641
aF0.007661841294710766
aF0.0003597708277385098
aF-0.017765127321700293
aF-0.004519965317092628
aF-0.006311699067306979
aF0.0
aF-0.0005681777562046646
aF-0.006875033247136732
aF-0.004457527149622145
aF-0.011823681008817014
aF-0.0007991716960359141
aF0.009002109685259689
aF0.008077827549007014
aF-0.017141931404810146
aF0.005130316073444749
aF0.0
aF-0.01251237337778727
aF-0.017259447804325513
aF-0.01592198373937932
aF-0.0026642352056389924
aF-0.00399106424395128
aF-0.005979274560368968
aF0.0036685077362027508
aF-0.0028932030274748254
aF0.0
aF0.003100388279827556
aF-0.0007570643237779407
aF-0.027806738271918388
aF-0.007117179533020525
aF0.0
aF0.0
aF-0.0013319528267265236
aF0.0037496608130958057
aF-0.004368211661642262
aF-0.004101429375547664
aF-0.010096780122758789
aF-0.003924575095193324
aF-0.06644026629084879
aF-0.008698803404552119
aF-0.00490402751563856
aF-0.006659316465249618
aF-0.00040751182643141
aF-0.0004842167154785349
aF-0.01105402559930778
aF0.0
aF-0.004913943520041356
aF0.0
aF0.008286167351975815
aF0.0
aF-0.0014578505018125812
aF-0.008265565013212683
aF0.0003023863927580127
aF-0.004062087340184991
aF0.002842429213506377
aF-0.003980564779377082
aF-0.030019762200166618
aF0.010413119033391083
aF0.0009075058085227727
aF-0.024865916291983658
aF0.005268553681084247
aF-0.004407293813816736
aF-0.0035867489712887767
aF-0.009245820640558011
aF0.0
aF0.002562284453892563
aF0.005654516601481104
aF-0.0037949944292597765
aF-0.0023924145035972913
aF-0.008455130648398238
aF-0.006440004168912656
aF0.0061225783337815
aF-0.0033720739805247237
aF0.0
aF0.0
aF0.0014413654380916545
aF-0.006698132467440712
aF0.0011639122995093522
aF-0.004525603666649985
aF-0.0030865612954006404
aF-0.013218214908081073
aF0.0
aF-0.01053310698082769
aF0.007943240330306496
aF0.005453539122737549
aF-0.012511109001960636
aF-0.0039179984081278265
aF0.0
aF0.0
aF-0.016023088835343376
aF0.0221786974425916
aF0.006353688440841158
aF-0.01047659380182132
aF-0.002229519569794603
aF0.0
aF-0.006759167120830764
aF0.006925292306124807
aF-0.06086210524612607
aF0.0
aF-0.016279971179285035
aF0.0
aF0.00038573896065540055
aF-0.010655486682186667
aF-0.004233627840657105
aF0.005416259671577488
aF-0.002371573376331053
aF0.0
aF-0.05300631135384818
aF0.0
aF-0.007640403967260493
aF0.0017540242133198653
aF0.0
aF0.0
aF0.000902124384037531
aF0.007469267500826366
aF-0.020734568641422802
aF0.002095775769410348
aF0.0
aF-0.010957580534182543
aF-0.003386522314854018
aF-0.01818700562358238
aF0.002846143847154323
aF-0.013285390170522807
aF-0.009230251517629793
aF-0.0039572033461583046
aF-0.01575785251325058
aF-0.0041816551604413246
aF-0.007628784195088144
aF-0.004537889129547855
aF-0.01991035853776499
aF0.0
aF-0.08459665952647948
aF-0.0042778308901244184
aF-0.0009966528326849535
aF0.0
aF0.0
aF0.0
aF0.0061225783337815
aF-0.028313994527456327
aF-0.009227303332851091
aF0.005507910012200047
aF0.0014192928138274429
aF0.003433509572623853
aF0.007228594516048093
aF0.004592401513167861
aF-0.004236536701804326
aF0.0014282317424257431
aF-0.009224513412278819
aF-0.0024895087829560087
aF-0.0043431006955097825
aF-0.006056195987017425
aF0.0
aF-0.013206949940197681
aF0.0
aF-0.05361615610303055
aF0.0016314332307915238
aF0.0
aF0.0016420491616949235
aF-0.003774790895181337
aF0.0
aF0.006705392654187404
aF-0.00687478485470819
aF-0.0024819315587466324
aF0.0017182566636598819
aF0.0
aF0.0018177972822106567
aF-0.0104474836809103
aF-0.0034979356403509448
aF0.0
aF0.0
aF0.0031604154554839016
aF-0.023094970328955158
aF-0.006513628057143734
aF-0.08122828984415108
aF0.0
aF-0.00425958513769832
aF0.006115523078369231
aF-0.0035860318742872155
aF-0.010157364577202403
aF-0.002775287769520493
aF0.0
aF-0.012614769893541863
aF-0.0006124114306204248
aF-0.01141408510768645
aF-0.004103040461102825
aF0.0
aF-0.006888131886973235
aF0.0002385271636796333
aF0.012580105539999002
aF0.016755673412440133
aF0.00821637834767154
aF-0.0822864229295796
aF-0.0029250279220491074
aF-0.00025998395750833096
aF-0.019286945311732036
aF0.0
aF-0.003064478395177173
aF-0.003096789831625834
aF0.0013586669656986974
aF-0.005130367417988688
aF-0.0021748238993994262
aF0.0
aF-0.007949307239662903
aF0.0
aF0.005664531455057654
aF-0.003454983101630024
aF-0.0009198009785520194
aF-0.0392988496191052
aF-0.0730584642583707
aF0.003056518791005643
aF-0.018771051169480697
aF0.0
aF0.003421328439915002
aF-0.03487684891647428
aF-0.02056824451819896
aF-0.0013319528267265236
aF-0.0015894880978684462
aF0.001121706648868424
aF-0.004666045096211201
aF0.0
aF-0.035731687527037384
aF0.0
aF-0.007916216850212713
aF0.0
aF-0.0005665765736161963
aF0.0
aF-0.0024414683310557475
aF-0.014245105326504937
aF0.0
aF-0.008077636406399715
aF0.0
aF0.0
aF-0.010972107593140514
aF-0.004863676165364907
aF-0.0006687030836633523
aF-0.002099008836197541
aF0.0
aF0.006925292306124807
aF-0.00550921211694156
aF-0.004734961659253056
aF-0.01390877155231812
aF0.0
aF-0.017813504133014264
aF-0.005847706254405954
aF0.0021700588454128425
aF-0.0032064195283090673
aF0.0
aF-0.015368482505395105
aF-0.14644948588748188
aF-0.0015139328631368922
aF0.005783047806591255
aF-0.0014267392357084586
aF-0.0006920120693857663
aF0.0
aF-0.004628680796780002
aF0.0
aF0.0
aF0.014595638346482441
aF-0.05086988406070213
aF-0.017150911296680296
aF-0.0019202825896938575
aF-0.0019768838259795114
aF-0.0013319528267265236
aF-0.003949552847425778
aF0.0056140269938348576
aF0.00815408299576868
aF0.0010043028527906696
aF-0.002272904881693586
aF0.0
aF-0.0047158704889873285
aF0.0042512373683502675
aF-0.016017853911136422
aF-0.0013319528267265236
aF-0.0018754604289882308
aF0.0
aF-0.004541032530243607
aF-5.1613324232353906e-05
aF-0.008687126602871463
aF0.0
aF0.0
aF0.014758221894937725
aF-0.013138353973743926
aF0.0
aF0.0
aF0.0125194051622386
aF0.014975068494097118
aF-0.0042043739817076336
aF0.0
aF-0.0025489986443870995
aF0.004403329655009362
aF-0.04440587065998102
aF-0.0038101210267882176
aF0.0
aF0.003198498302891425
aF0.013559630783338963
aF-0.0043483415578167185
aF0.00916789768561571
aF0.0
aF-0.008286869400865723
aF-0.002594149591837167
aF0.00021892037609057844
aF-0.008580072041540529
aF-0.0015218489948175065
aF0.0
aF-0.004165390755512484
aF-0.0019163958819768975
aF-0.006652876228317733
aF0.0015480218934460672
aF-0.0040211219183093365
aF0.0
aF0.0
aF-0.0013166773000967643
aF0.0
aF-0.0013319528267265236
aF0.0
aF-0.004760524389939367
aF-0.0013319528267265236
aF-0.0043483415578167185
aF-0.0008246586391338878
aF0.009315192471972298
aF0.0
aF0.0
aF-0.05537302700880351
aF0.0
aF0.0
aF0.0
aF-0.011056850067043218
aF0.0
aF0.0
aF-0.002182883929929029
aF-0.002222904023273985
aF-0.003687906365559196
aF0.0
aF-0.004316308830044743
aF-0.0030336871963380484
aF-0.00444580804654797
aF0.007566742301165035
aF-0.0026552260424355574
aF0.0
aF0.0
aF-0.00018148298555146873
aF-0.003844851367595108
aF-0.008633815555911133
aF0.006974755297805423
aF-0.002943369711780693
aF0.009002109685259689
aF-0.003072935363993634
aF-0.005389669169780887
aF-0.018477315768153764
aF-0.0824087356087837
aF-0.004417788091925255
aF-0.015598006807455022
aF-0.0022287635748110724
aF-0.008771980402293827
aF-0.007839510898994711
aF-0.0157530455193691
aF-0.01564987307266288
aF0.013634423990857045
aF-3.483974226755303e-05
aF-0.003802875994379315
aF-0.004428517842907527
aF0.0
aF0.0
aF0.0
aF-0.0033754426954145838
aF0.00039517984055828926
aF-0.0009143661234772044
aF-0.002996920292142146
aF-0.007329291067761964
aF-0.004955300630936503
aF0.005258068559950486
aF0.0
aF0.0033742518254452052
aF-0.0028637650374900864
aF0.0
aF-0.04280613324219728
aF-0.06550732042530766
aF-0.0039055260664382107
aF0.0
aF0.0006378928401268033
aF-0.006496253060665987
aF-0.004987554793247513
aF-0.004817602856610025
aF0.001347472322058956
aF-0.007006525794009244
aF0.007973562110261553
aF-0.04083724150800103
aF-0.008579285439369696
aF-0.007194912186271842
aF0.0
aF-0.0049732015168349655
aF0.0006727786573389582
aF-0.007405509128405047
aF-0.00016981452649829484
aF0.003086171474602374
aF0.0
aF0.005995007654357649
aF0.0
aF0.006343810404932973
aF-0.0021372503846307012
aF0.003910585710734746
aF-0.02638948684160736
aF0.00025664930339543016
aF-0.003899343972113661
aF0.00916789768561571
aF0.00916789768561571
aF-0.0018004994682717793
aF-0.00866220208768451
aF0.005015720490997564
aF-0.004261104495369053
aF0.012341551977702295
aF-0.008658400027005589
aF-0.009586082337688708
aF0.006510183046421574
aF0.008537961467715119
aF-0.0006659764133632618
aF-0.00690363921261398
aF0.0
aF0.0
aF-0.05963400773236459
aF0.0
aF0.010068131772040585
aF-0.007076086593411749
aF0.005067212317269884
aF0.0
aF0.0030717451389168514
aF-0.0021783513983625867
aF-0.001995914474579181
aF-0.04574993098056061
aF-0.0013319528267265236
aF-0.006038077165703724
aF-0.00933971683968639
aF0.005737442728155502
aF-0.000984558807612155
aF-0.04341795550848644
aF0.0
aF0.010226574869036532
aF-0.004059640451232214
aF0.0015747018505811133
aF-0.007104537438519765
aF-0.0013120660843947223
aF-0.059867168834545126
aF0.0
aF-0.004173867432921387
aF0.0
aF0.0
aF-0.027412222096752707
aF0.006534025456302603
aF-0.0801619957684991
aF-0.004093791469471657
aF-0.0758384954542649
aF0.0
aF0.009403301369922255
aF-0.018474785274026257
aF-0.04150517755978708
aF-0.002445178010083753
aF-0.0020044664290344615
aF-0.0021502523986319322
aF-0.008516149747915952
aF0.0014417913541351435
aF0.005879233829762501
aF-0.011857567971805495
aF-0.00419826286433505
aF-0.0030865612954006404
aF0.0
aF0.0
aF0.0
aF0.005518267684237522
aF-0.00736635030217435
aF-0.006528930598708287
aF-0.0015462967223829084
aF0.0036874601796664658
aF-0.0376977327259969
aF-0.003184274687173326
aF-0.011209494844881915
aF0.00916789768561571
aF0.0
aF-0.02589183308257836
aF-0.018089299988558308
aF-0.04195819088342343
aF-0.002438235142044968
aF-0.0509812255794275
aF-0.013076935410062081
aF-0.03441425281417186
aF-0.013867833776083627
aF0.0007091152418334883
aF-0.005244755823048961
aF0.004886847358181451
aF-0.05040782648134061
aF-0.0019217545820303477
aF-0.028035917664735097
aF0.0
aF-0.004233627840657105
aF-0.004648648767758146
aF-0.04451351043791992
aF-0.006426620129863133
aF0.0
aF-0.0008634153213027684
aF-0.004963863117493265
aF0.014678662946286267
aF-0.0049711282460237075
aF-0.006285927798100966
aF-0.04605806800103395
aF-0.012551177732935076
aF0.007873016410845271
aF-0.000185610126069111
aF0.007977412987221637
aF-0.004963863117493265
aF-0.04473551199726957
aF-0.03116883708659398
aF-0.033906561877516256
aF0.0026006944564294335
aF-0.010223174703054191
aF-0.020161023374739077
aF-0.02055044158519155
aF-0.010752753004533065
aF-0.04514277992630786
aF-0.0010569522272143742
aF0.018412858492165254
aF0.012840426429303643
aF0.0002758892216812195
aF-0.028398779002611077
aF-0.004937874848823791
aF-0.009585402089285336
aF-0.036033252347202636
aF-0.0009013164617254037
aF0.003232576998036467
aF-0.043742480597761826
aF-0.0005697222063804192
aF0.00201198553158323
aF-0.03527296361244315
aF-0.01908504212982371
aF-0.009187126450670411
aF-0.010892033864514171
aF0.0
aF-0.0012748047672540906
aF-0.003799533234201067
aF-0.031212294679097988
aF0.014290556261754546
aF-0.03408867123619275
aF-0.0044540966040114375
aF-0.004275541262089814
aF-0.006154396834418119
aF-0.005413528417904446
aF0.0026006944564294335
aF-0.020269608325028433
aF-0.004963863117493265
aF0.0
aF-0.045065252322352874
aF-0.0118815926473103
aF-0.05408753912082215
aF-0.003507359383815254
aF-0.03726668242444296
aF-0.00426529633965052
aF-0.04044770147147021
aF-0.019664967937633965
aF-0.003644381330340233
aF0.004379443052482019
aF-0.032633850724443664
aF-0.008329957161856544
aF-0.045220762500486594
aF0.0
aF-0.03699552770026307
aF-0.0035140387487588975
aF-0.0027796338539361185
aF-0.008844180961355197
aF-0.029220467922796173
aF-0.015567887224424903
aF-0.04606150754094907
aF0.00783873683119417
aF-0.017954291626977276
aF-0.01091437301937035
aF-0.005425343547949518
aF-0.0004710822619977432
aF0.0130519402973631
aF-0.008887755452378004
aF-0.0017446055082950686
aF0.002372632836949113
aF-0.009644775231058538
aF-0.0077663809101619265
aF-0.010471461611548114
aF-0.009888037338637207
aF-0.0544209242507899
aF0.0024422914715800975
aF-0.019537163093080876
aF0.0
aF-0.001158774278675217
aF0.007025586576170814
aF-0.008777630666350235
aF-0.013076935410062081
aF-0.014017371105499953
aF-0.0033758669142982577
aF0.0016954311907800069
aF-0.055034143862231814
aF-0.0004716585481501647
aF-0.04450363932058738
aF0.0009489361130988387
aF0.008347128322358923
aF-0.0382221894397968
aF-0.00385665888177378
aF-0.015404985436529564
aF-0.0006342403878253277
aF-0.011922629161692485
aF-0.0006346851794009743
aF-0.004963863117493265
aF-0.004997872252899544
aF0.006319394732661413
aF-0.005413528417904446
aF-0.03654230623865072
aF-0.005682072190570063
aF-0.02079364665692034
aF-0.001891330354178094
aF-0.004775731661007273
aF-0.01119359879208761
aF-0.04680118820542309
aF-0.05277962668800063
aF-0.01326417084909835
aF-0.007460244636262281
aF0.002750458325773578
aF0.0018905861623909346
aF-0.05388053069643857
aF-0.0038940138421291403
aF-0.036111002163229516
aF-0.017263265065837155
aF-0.01899583406452481
aF0.0027514169914053194
aF-0.012767299942601658
aF-0.048254582152973145
aF-0.003839743803686625
aF0.001279308521584179
aF0.0
aF0.0
aF0.0064357871292170556
aF0.010876309709872039
aF-0.021753528039638547
aF0.0
aF0.004152086138807752
aF-0.052582761726795955
aF-0.0059609607337212205
aF0.006343810404932973
aF-0.005236526991024637
aF-0.005382277415751223
aF-0.001463147236823215
aF-0.04053490209505752
aF0.002285245997680538
aF-0.004450162384696184
aF0.0
aF-0.04628511209560947
aF-0.04813675944246625
aF-0.0012991947211735896
aF-0.007824781832728573
aF-0.007048845146445807
aF-0.019871121400942725
aF0.0009616392603508247
aF0.003675023630640587
aF0.0
aF-0.048460802834551786
aF-0.03221703573064117
aF-0.001786626019528732
aF-0.012991006624505544
aF0.0003786105281382038
aF-0.0030336871963380484
aF-0.012614672098375319
aF-0.010545341068900104
aF-0.01614869591135064
aF0.015039553289586926
aF-0.04585007226926476
aF0.0006303240290828857
aF0.005984321609907858
aF-0.005244755823048961
aF-0.004270123628160857
aF-0.04813802446361856
aF0.01324410074989644
aF0.0004995506101850985
aF0.006335516323199493
aF0.008918222124757538
aF-0.0015815851113818932
aF-0.0461236975626495
aF-0.0026369498542364073
aF-0.0018538525618084021
aF0.0031334943475117244
aF-0.005371610009917787
aF-0.0019257467865017273
aF-0.01099344474545043
aF-0.04725737843820412
aF-0.005723544732455559
aF0.0028277416629891696
aF0.0036261126539483845
aF0.0
aF-0.022414689355535287
aF-0.00796117873529474
aF-0.014645001995570481
aF-0.003052020784420212
aF-0.0019361458839611684
aF-0.0040211219183093365
aF-0.01252211104331528
aF-0.01680793339595449
aF-0.03527296361244315
aF-0.04114823770464146
aF0.005564769106221148
aF0.007706232267796897
aF-0.006612285316734761
aF0.0015617008723600194
aF-0.01027115736088287
aF-0.04669620630615716
aF0.0008041686996006312
aF-0.04489722884313192
aF-0.020222710337143474
aF-0.0052863355405645025
aF6.22997578502934e-05
aF-0.012480726038103683
aF-0.008428981179956916
aF-0.012737277088614826
aF-0.0015080024860169437
aF-0.04446814055070092
aF0.0
aF-0.02918148273826813
aF-0.05065914611316473
aF0.01530492667494329
aF-0.009710455259440653
aF0.0024451250045024507
aF-0.05561913519400458
aF0.0027811361749249973
aF-0.000982510460663138
aF-0.007752145064537991
aF0.003874364461702792
aF0.0
aF-0.0013319528267265236
aF-0.0012077600511262979
aF-0.0032893139531492074
aF-0.04509765861502375
aF-0.057192679962251164
aF-0.004371356403999387
aF0.005373265623570284
aF-0.0006400255753986333
aF-0.002689371863308616
aF-0.011666806215779164
aF-0.005133951672161889
aF0.0009790203389207462
aF0.0
aF-0.03622083138948582
aF0.006315787803606612
aF0.016604461205209985
aF0.009271066665785276
aF-0.04509765861502375
aF0.0016867397658856006
aF-0.012255490591753722
aF-0.012637017678842007
aF-0.007646650654506355
aF-0.04041112372343132
aF0.007755854045274341
aF-0.05388053069643857
aF-0.017926833883190264
aF0.0
aF-0.045876920131540995
aF-0.0036567382078457685
aF0.005264944093109678
aF-0.0013885173037743287
aF-0.0015097700251444923
aF-0.05797634582596064
aF0.011311088199008201
aF-0.018752895692338484
aF-0.005742236668035333
aF-0.011805068136855166
aF-0.00335739107284412
aF-0.014046712266390328
aF-0.0030336871963380484
aF-0.004235587011039573
aF-0.034548696505754095
aF-0.0015492528296143192
aF-0.032425751320820546
aF0.0034708912713168564
aF-0.030241959995311214
aF0.0034228370333846255
aF0.003481028822830918
aF-0.001517099282577429
aF-0.017702545743407155
aF-0.0038940138421291403
aF-0.001994914112626062
aF-0.01326417084909835
aF-0.0018668943400491135
aF-0.0395563022934278
aF-0.0024369995992225752
aF-0.01857278087603225
aF-0.0059609607337212205
aF-0.02628337967918043
aF-0.007565277837860875
aF0.0039202738722128915
aF-0.0009827363922347036
aF-0.04509765861502375
aF-0.0041933733453716135
aF0.006659940827524632
aF-0.0034363076625720103
aF-0.01204626721748751
aF-0.007103720951660288
aF-0.001786626019528732
aF0.0
aF-0.0006342403878253277
aF-0.05338196635149824
aF-0.008010189630214583
aF-0.006285927798100966
aF-0.016367718156429623
aF0.0003536611988009669
aF-0.003142097279045331
aF-0.0001867318396557129
aF-0.01523392553682873
aF-0.0024793883517184503
aF-0.0030336871963380484
aF-0.04611849470669652
aF-0.006325941581646825
aF0.00797524341308066
aF-0.004453224242542038
aF0.0023887833714134085
aF0.0029367412658839295
aF-0.013976205835056247
aF-0.004469974447184833
aF-0.0030336871963380484
aF0.016465522127494834
aF-0.004091511384024467
aF-0.002281022440714508
aF0.0042695850846403045
aF0.008114260983462119
aF0.0
aF-0.004479992188626884
aF0.0
aF-0.002054394630474954
aF0.0036174979494003412
aF-0.043358271969696896
aF-0.011652304898693363
aF0.0
aF-0.020693342100749152
aF-0.006454099762308282
aF-0.0030336871963380484
aF-0.0030336871963380484
aF0.0
aF0.0
aF0.0
aF0.0
aF0.0
aF0.0
aF0.0
aF0.0
aF0.0
aF0.0
aF0.0
aF0.0
aF0.0
aF0.0
aF0.0
aF0.0
aF0.0
aF0.0
aF0.0
aF0.0
aF0.0
aF0.0
aF0.0
aF0.0
aF0.0
aF0.0
aF0.0
aF0.0
aF0.0
aF0.0
aF0.0
aF0.0
aF0.0
aF0.0
aF0.0
aF0.0
aF0.0
aF0.0
aF0.0
aF0.0
aF0.0
aF0.0
aF0.0
aF0.0
aF0.0
aF0.0
aF0.0
aF0.0
aF0.0
aF0.0
aF0.0
aF0.0
aF0.0
aF0.0
aF0.0
aF0.0
aF0.0
aF0.0
aF0.0
aF0.0
aF0.0
aF0.0
aF0.0
aF0.0
aF0.0
aF0.0
aF0.0
aF0.0
aF0.0
aF0.0
aF0.0
aF0.0
aF0.0
aF0.0
aF0.0
aF0.0
aF0.0
aF0.0
aF0.0
aF0.0
aF0.0
aF0.0
aF0.0
aF0.0
aF0.0
aF0.0
aF0.0
aF0.0
aF0.0
aF0.0
aF0.0
aF0.0
aF0.0
aF0.0
aF0.0
aF0.0
aF0.0
aF0.0
aF0.0
aF0.0
aF0.0
aF0.0
aF0.0
aF0.0
aF0.0
aF0.0
aF0.0
aF0.0
aF0.0
aF0.0
aF0.0
aF0.0
aF0.0
aF0.0
aF0.0
aF0.0
aF0.0
aF0.0
aF0.0
aF0.0
aF0.0
aF0.0
aF0.0
aF0.0
aF0.0
aF0.0
aF0.0
aF0.0
aF0.0
aF0.0
aF0.0
aF0.0
aF0.0
aF0.0
aF0.0
aF0.0
aF0.0
aF0.0
aF0.0
aF0.0
aF0.0
aF0.0
aF0.0
aF0.0
aF0.0
aF0.0
aF0.0
aF0.0
aF0.0
aF0.0
aF0.0
aF0.0
aF0.0
aF0.0
aF0.0
aF0.0
aF0.0
aF0.0
aF0.0
aF0.0
aF0.0
aF0.0
aF0.0
aF0.0
aF0.0
aF0.0
aF0.0
aF0.0
aF0.0
aF0.0
aF0.0
aF0.0
aF0.0
aF0.0
aF0.0
aF0.0
aF0.0
aF0.0
aF0.0
aF0.0
aF0.0
aF0.0
aF0.0
aF0.0
aF0.0
aF0.0
aF0.0
aF0.0
aF0.0
aF0.0
aF0.0
aF0.0
aF0.0
aF0.0
aF0.0
aF0.0
aF0.0
aF0.0
aF0.0
aF0.0
aF0.0
aF0.0
aF0.0
aF0.0
aF0.0
aF0.0
aF0.0
aF0.0
aF0.0
aF0.0
aF0.0
aF0.0
aF0.0
aF0.0
aF0.0
aF0.0
aF0.0
aF0.0
aF0.0
aF0.0
aF0.0
aF0.0
aF0.0
aF0.0
aF0.0
aF0.0
aF0.0
aF0.0
aF0.0
aF0.0
aF0.0
aF0.0
aF0.0
aF0.0
aF0.0
aF0.0
aF0.0
aF0.0
aF0.0
aF0.0
aF0.0
aF0.0
aF0.0
aF0.0
aF0.0
aF0.0
aF0.0
aF0.0
aF0.0
aF0.0
aF0.0
aF0.0
aF0.0
aF0.0
aF0.0
aF0.0
aF0.0
aF0.0
aF0.0
aF0.0
aF0.0
aF0.0
aF0.0
aF0.0
aF0.0
aF0.0
aF0.0
aF0.0
aF0.0
aF0.0
aF0.0
aF0.0
aF0.0
aF0.0
aF0.0
aF0.0
aF0.0
aF0.0
aF0.0
aF0.0
aF0.0
aF0.0
aF0.0
aF0.0
aF0.0
aF0.0
aF0.0
aF0.0
aF0.0
aF0.0
aF0.0
aF0.0
aF0.0
aF0.0
aF0.0
aF0.0
aF0.0
aF0.0
aF0.0
aF0.0
aF0.0
aF0.0
aF0.0
aF0.0
aF0.0
aF0.0
aF0.0
aF0.0
aF0.0
aF0.0
aF0.0
aF0.0
aF0.0
aF0.0
aF0.0
aF0.0
aF0.0
aF0.0
aF0.0
aF0.0
aF0.0
aF0.0
aF0.0
aF0.0
aF0.0
aF0.0
aF0.0
aF0.0
aF0.0
aF0.0
aF0.0
aF0.0
aF0.0
aF0.0
aF0.0
aF0.0
aF0.0
aF0.0
aF0.0
aF0.0
aF0.0
aF0.0
aF0.0
aF0.0
aF0.0
aF0.0
aF0.0
aF0.0
aF0.0
aF0.0
aF0.0
aF0.0
aF0.0
aF0.0
aF0.0
aF0.0
aF0.0
aF0.0
aF0.0
aF0.0
aF0.0
aF0.0
aF0.0
aF0.0
aF0.0
aF0.0
aF0.0
aF0.0
aF0.0
aF0.0
aF0.0
aF0.0
aF0.0
aF0.0
aF0.0
aF0.0
aF0.0
aF0.0
aF0.0
aF0.0
aF0.0
aF0.0
aF0.0
aF0.0
aF0.0
aF0.0
aF0.0
aF0.0
aF0.0
aF0.0
aF0.0
aF0.0
aF0.0
aF0.0
aF0.0
aF0.0
aF0.0
aF0.0
aF0.0
aF0.0
aF0.0
aF0.0
aF0.0
aF0.0
aF0.0
aF0.0
aF0.0
aF0.0
aF0.0
aF0.0
aF0.0
aF0.0
aF0.0
aF0.0
aF0.0
aF0.0
aF0.0
aF0.0
aF0.0
aF0.0
aF0.0
aF0.0
aF0.0
aF0.0
aF0.0
aF0.0
aF0.0
aF0.0
aF0.0
aF0.0
aF0.0
aF0.0
aF0.0
aF0.0
aF0.0
aF0.0
aF0.0
aF0.0
aF0.0
aF0.0
aF0.0
aF0.0
aF0.0
aF0.0
aF0.0
aF0.0
aF0.0
aF0.0
aF0.0
aF0.0
aF0.0
aF0.0
aF0.0
aF0.0
aF0.0
aF0.0
aF0.0
aF0.0
aF0.0
aF0.0
aF0.0
aF0.0
aF0.0
aF0.0
aF0.0
aF0.0
aF0.0
aF0.0
aF0.0
aF0.0
aF0.0
aF0.0
aF0.0
aF0.0
aF0.0
aF0.0
aF0.0
aF0.0
aF0.0
aF0.0
aF0.0
aF0.0
aF0.0
aF0.0
aF0.0
aF0.0
aF0.0
aF0.0
aF0.0
aF0.0
aF0.0
aF0.0
aF0.0
aF0.0
aF0.0
aF0.0
aF0.0
aF0.0
aF0.0
aF0.0
aF0.0
aF0.0
aF0.0
aF0.0
aF0.0
aF0.0
aF0.0
aF0.0
aF0.0
aF0.0
aF0.0
aF0.0
aF0.0
aF0.0
aF0.0
aF0.0
aF0.0
aF0.0
aF0.0
aF0.0
aF0.0
aF0.0
aF0.0
aF0.0
aF0.0
aF0.0
aF0.0
aF0.0
aF0.0
aF0.0
aF0.0
aF0.0
aF0.0
aF0.0
aF0.0
aF0.0
aF0.0
aF0.0
aF0.0
aF0.0
aF0.0
aF0.0
aF0.0
aF0.0
aF0.0
aF0.0
aF0.0
aF0.0
aF0.0
aF0.0
aF0.0
aF0.0
aF0.0
aF0.0
aF0.0
aF0.0
aF0.0
aF0.0
aF0.0
aF0.0
aF0.0
aF0.0
aF0.0
aF0.0
aF0.0
aF0.0
aF0.0
aF0.0
aF0.0
aF0.0
aF0.0
aF0.0
aF0.0
aF0.0
aF0.0
aF0.0
aF0.0
aF0.0
aF0.0
aF0.0
aF0.0
aF0.0
aF0.0
aF0.0
aF0.0
aF0.0
aF0.0
aF0.0
aF0.0
aF0.0
aF0.0
aF0.0
aF0.0
aF0.0
aF0.0
aF0.0
aF0.0
aF0.0
aF0.0
aF0.0
aF0.0
aF0.0
aF0.0
aF0.0
aF0.0
aF0.0
aF0.0
aF0.0
aF0.0
aF0.0
aF0.0
aF0.0
aF0.0
aF0.0
aF0.0
aF0.0
aF0.0
aF0.0
aF0.0
aF0.0
aF0.0
aF0.0
aF0.0
aF0.0
aF0.0
aF0.0
aF0.0
aF0.0
aF0.0
aF0.0
aF0.0
aF0.0
aF0.0
aF0.0
aF0.0
aF0.0
aF0.0
aF0.0
aF0.0
aF0.0
aF0.0
aF0.0
aF0.0
aF0.0
aF0.0
aF0.0
aF0.0
aF0.0
aF0.0
aF0.0
aF0.0
aF0.0
aF0.0
aF0.0
aF0.0
aF0.0
aF0.0
aF0.0
aF0.0
aF0.0
aF0.0
aF0.0
aF0.0
aF0.0
aF0.0
aF0.0
aF0.0
aF0.0
aF0.0
aF0.0
aF0.0
aF0.0
aF0.0
aF0.0
aF0.0
aF0.0
aF0.0
aF0.0
aF0.0
aF0.0
aF0.0
aF0.0
aF0.0
aF0.0
aF0.0
aF0.0
aF0.0
aF0.0
aF0.0
aF0.0
aF0.0
aF0.0
aF0.0
aF0.0
aF0.0
aF0.0
aF0.0
aF0.0
aF0.0
aF0.0
aF0.0
aF0.0
aF0.0
aF0.0
aF0.0
aF0.0
aF0.0
aF0.0
aF0.0
aF0.0
aF0.0
aF0.0
aF0.0
aF0.0
aF0.0
aF0.0
aF0.0
aF0.0
aF0.0
aF0.0
aF0.0
aF0.0
aF0.0
aF0.0
aF0.0
aF0.0
aF0.0
aF0.0
aF0.0
aF0.0
aF0.0
aF0.0
aF0.0
aF0.0
aF0.0
aF0.0
aF0.0
aF0.0
aF0.0
aF0.0
aF0.0
aF0.0
aF0.0
aF0.0
aF0.0
aF0.0
aF0.0
aF0.0
aF0.0
aF0.0
aF0.0
aF0.0
aF0.0
aF0.0
aF0.0
aF0.0
aF0.0
aF0.0
aF0.0
aF0.0
aF0.0
aF0.0
aF0.0
aF0.0
aF0.0
aF0.0
aF0.0
aF0.0
aF0.0
aF0.0
aF0.0
aF0.0
aF0.0
aF0.0
aF0.0
aF0.0
aF0.0
aF0.0
aF0.0
aF0.0
aF0.0
aF0.0
aF0.0
aF0.0
aF0.0
aF0.0
aF0.0
aF0.0
aF0.0
aF0.0
aF0.0
aF0.0
aF0.0
aF0.0
aF0.0
aF0.0
aF0.0
aF0.0
aF0.0
aF0.0
aF0.0
aF0.0
aF0.0
aF0.0
aF0.0
aF0.0
aF0.0
aF0.0
aF0.0
aF0.0
aF0.0
aF0.0
aF0.0
aF0.0
aF0.0
aF0.0
aF0.0
aF0.0
aF0.0
aF0.0
aF0.0
aF0.0
aF0.0
aF0.0
aF0.0
aF0.0
aF0.0
aF0.0
aF0.0
aF0.0
aF0.0
aF0.0
aF0.0
aF0.0
aF0.0
aF0.0
aF0.0
aF0.0
aF0.0
aF0.0
aF0.0
aF0.0
aF0.0
aF0.0
aF0.0
aF0.0
aF0.0
aF0.0
aF0.0
aF0.0
aF0.0
aF0.0
aF0.0
aF0.0
aF0.0
aF0.0
aF0.0
aF0.0
aF0.0
aF0.0
aF0.0
aF0.0
aF0.0
aF0.0
aF0.0
aF0.0
aF0.0
aF0.0
aF0.0
aF0.0
aF0.0
aF0.0
aF0.0
aF0.0
aF0.0
aF0.0
aF0.0
aF0.0
aF0.0
aF0.0
aF0.0
aF0.0
aF0.0
aF0.0
aF0.0
aF0.0
aF0.0
aF0.0
aF0.0
aF0.0
aF0.0
aF0.0
aF0.0
aF0.0
aF0.0
aF0.0
aF0.0
aF0.0
aF0.0
aF0.0
aF0.0
aF0.0
aF0.0
aF0.0
aF0.0
aF0.0
aF0.0
aF0.0
aF0.0
aF0.0
aF0.0
aF0.0
aF0.0
aF0.0
aF0.0
aF0.0
aF0.0
aF0.0
aF0.0
aF0.0
aF0.0
aF0.0
aF0.0
aF0.0
aF0.0
aF0.0
aF0.0
aF0.0
aF0.0
aF0.0
aF0.0
aF0.0
aF0.0
aF0.0
aF0.0
aF0.0
aF0.0
aF0.0
aF0.0
aF0.0
aF0.0
aF0.0
aF0.0
aF0.0
aF0.0
aF0.0
aF0.0
aF0.0
aF0.0
aF0.0
aF0.0
aF0.0
aF0.0
aF0.0
aF0.0
aF0.0
aF0.0
aF0.0
aF0.0
aF0.0
aF0.0
aF0.0
aF0.0
aF0.0
aF0.0
aF0.0
aF0.0
aF0.0
aF0.0
aF0.0
aF0.0
aF0.0
aF0.0
aF0.0
aF0.0
aF0.0
aF0.0
aF0.0
aF0.0
aF0.0
aF0.0
aF0.0
aF0.0
aF0.0
aF0.0
aF0.0
aF0.0
aF0.0
aF0.0
aF0.0
aF0.0
aF0.0
aF0.0
aF0.0
aF0.0
aF0.0
aF0.0
aF0.0
aF0.0
aF0.0
aF0.0
aF0.0
aF0.0
aF0.0
aF0.0
aF0.0
aF0.0
aF0.0
aF0.0
aF0.0
aF0.0
aF0.0
aF0.0
aF0.0
aF0.0
aF0.0
aF0.0
aF0.0
aF0.0
aF0.0
aF0.0
aF0.0
aF0.0
aF0.0
aF0.0
aF0.0
aF0.0
aF0.0
aF0.0
aF0.0
aF0.0
aF0.0
aF0.0
aF0.0
aF0.0
aF0.0
aF0.0
aF0.0
aF0.0
aF0.0
aF0.0
aF0.0
aF0.0
aF0.0
aF0.0
aF0.0
aF0.0
aF0.0
aF0.0
aF0.0
aF0.0
aF0.0
aF0.0
aF0.0
aF0.0
aF0.0
aF0.0
aF0.0
aF0.0
aF0.0
aF0.0
aF0.0
aF0.0
aF0.0
aF0.0
aF0.0
aF0.0
aF0.0
aF0.0
aF0.0
aF0.0
aF0.0
aF0.0
aF0.0
aF0.0
aF0.0
aF0.0
aF0.0
aF0.0
aF0.0
aF0.0
aF0.0
aF0.0
aF0.0
aF0.0
aF0.0
aF0.0
aF0.0
aF0.0
aF0.0
aF0.0
aF0.0
aF0.0
aF0.0
aF0.0
aF0.0
aF0.0
aF0.0
aF0.0
aF0.0
aF0.0
aF0.0
aF0.0
aF0.0
aF0.0
aF0.0
aF0.0
aF0.0
aF0.0
aF0.0
aF0.0
aF0.0
aF0.0
aF0.0
aF0.0
aF0.0
aF0.0
aF0.0
aF0.0
aF0.0
aF0.0
aF0.0
aF0.0
aF0.0
aF0.0
aF0.0
aF0.0
aF0.0
aF0.0
aF0.0
aF0.0
aF0.0
aF0.0
aF0.0
aF0.0
aF0.0
aF0.0
aF0.0
aF0.0
aF0.0
aF0.0
aF0.0
aF0.0
aF0.0
aF0.0
aF0.0
aF0.0
aF0.0
aF0.0
aF0.0
aF0.0
aF0.0
aF0.0
aF0.0
aF0.0
aF0.0
aF0.0
aF0.0
aF0.0
aF0.0
aF0.0
aF0.0
aF0.0
aF0.0
aF0.0
aF0.0
aF0.0
aF0.0
aF0.0
aF0.0
aF0.0
aF0.0
aF0.0
aF0.0
aF0.0
aF0.0
aF0.0
aF0.0
aF0.0
aF0.0
aF0.0
aF0.0
aF0.0
aF0.0
aF0.0
aF0.0
aF0.0
aF0.0
aF0.0
aF0.0
aF0.0
aF0.0
aF0.0
aF0.0
aF0.0
aF0.0
aF0.0
aF0.0
aF0.0
aF0.0
aF0.0
aF0.0
aF0.0
aF0.0
aF0.0
aF0.0
aF0.0
aF0.0
aF0.0
aF0.0
aF0.0
aF0.0
aF0.0
aF0.0
aF0.0
aF0.0
aF0.0
aF0.0
aF0.0
aF0.0
aF0.0
aF0.0
aF0.0
aF0.0
aF0.0
aF0.0
aF0.0
aF0.0
aF0.0
aF0.0
aF0.0
aF0.0
aF0.0
aF0.0
aF0.0
aF0.0
aF0.0
aF0.0
aF0.0
aF0.0
aF0.0
aF0.0
aF0.0
aF0.0
aF0.0
aF0.0
aF0.0
aF0.0
aF0.0
aF0.0
aF0.0
aF0.0
aF0.0
aF0.0
aF0.0
aF0.0
aF0.0
aF0.0
aF0.0
aF0.0
aF0.0
aF0.0
aF0.0
aF0.0
aF0.0
aF0.0
aF0.0
aF0.0
aF0.0
aF0.0
aF0.0
aF0.0
aF0.0
aF0.0
aF0.0
aF0.0
aF0.0
aF0.0
aF0.0
aF0.0
aF0.0
aF0.0
aF0.0
aF0.0
aF0.0
aF0.0
aF0.0
aF0.0
aF0.0
aF0.0
aF0.0
aF0.0
aF0.0
aF0.0
aF0.0
aF0.0
aF0.0
aF0.0
aF0.0
aF0.0
aF0.0
aF0.0
aF0.0
aF0.0
aF0.0
aF0.0
aF0.0
aF0.0
aF0.0
aF0.0
aF0.0
aF0.0
aF0.0
aF0.0
aF0.0
aF0.0
aF0.0
aF0.0
aF0.0
aF0.0
aF0.0
aF0.0
aF0.0
aF0.0
aF0.0
aF0.0
aF0.0
aF0.0
aF0.0
aF0.0
aF0.0
aF0.0
aF0.0
aF0.0
aF0.0
aF0.0
aF0.0
aF0.0
aF0.0
aF0.0
aF0.0
aF0.0
aF0.0
aF0.0
aF0.0
aF0.0
aF0.0
aF0.0
aF0.0
aF0.0
aF0.0
aF0.0
aF0.0
aF0.0
aF0.0
aF0.0
aF0.0
aF0.0
aF0.0
aF0.0
aF0.0
aF0.0
aF0.0
aF0.0
aF0.0
aF0.0
aF0.0
aF0.0
aF0.0
aF0.0
aF0.0
aF0.0
aF0.0
aF0.0
aF0.0
aF0.0
aF0.0
aF0.0
aF0.0
aF0.0
aF0.0
aF0.0
aF0.0
aF0.0
aF0.0
aF0.0
aF0.0
aF0.0
aF0.0
aF0.0
aF0.0
aF0.0
aF0.0
aF0.0
aF0.0
aF0.0
aF0.0
aF0.0
aF0.0
aF0.0
aF0.0
aF0.0
aF0.0
aF0.0
aF0.0
aF0.0
aF0.0
aF0.0
aF0.0
aF0.0
aF0.0
aF0.0
aF0.0
aF0.0
aF0.0
aF0.0
aF0.0
aF0.0
aF0.0
aF0.0
aF0.0
aF0.0
aF0.0
aF0.0
aF0.0
aF0.0
aF0.0
aF0.0
aF0.0
aF0.0
aF0.0
aF0.0
aF0.0
aF0.0
aF0.0
aF0.0
aF0.0
aF0.0
aF0.0
aF0.0
aF0.0
aF0.0
aF0.0
aF0.0
aF0.0
aF0.0
aF0.0
aF0.0
aF0.0
aF0.0
aF0.0
aF0.0
aF0.0
aF0.0
aF0.0
aF0.0
aF0.0
aF0.0
aF0.0
aF0.0
aF0.0
aF0.0
aF0.0
aF0.0
aF0.0
aF0.0
aF0.0
aF0.0
aF0.0
aF0.0
aF0.0
aF0.0
aF0.0
aF0.0
aF0.0
aF0.0
aF0.0
aF0.0
aF0.0
aF0.0
aF0.0
aF0.0
aF0.0
aF0.0
aF0.0
aF0.0
aF0.0
aF0.0
aF0.0
aF0.0
aF0.0
aF0.0
aF0.0
aF0.0
aF0.0
aF0.0
aF0.0
aF0.0
aF0.0
aF0.0
aF0.0
aF0.0
aF0.0
aF0.0
aF0.0
aF0.0
aF0.0
aF0.0
aF0.0
aF0.0
aF0.0
aF0.0
aF0.0
aF0.0
aF0.0
aF0.0
aF0.0
aF0.0
aF0.0
aF0.0
aF0.0
aF0.0
aF0.0
aF0.0
aF0.0
aF0.0
aF0.0
aF0.0
aF0.0
aF0.0
aF0.0
aF0.0
aF0.0
aF0.0
aF0.0
aF0.0
aF0.0
aF0.0
aF0.0
aF0.0
aF0.0
aF0.0
aF0.0
aF0.0
aF0.0
aF0.0
aF0.0
aF0.0
aF0.0
aF0.0
aF0.0
aF0.0
aF0.0
aF0.0
aF0.0
aF0.0
aF0.0
aF0.0
aF0.0
aF0.0
aF0.0
aF0.0
aF0.0
aF0.0
aF0.0
aF0.0
aF0.0
aF0.0
aF0.0
aF0.0
aF0.0
aF0.0
aF0.0
aF0.0
aF0.0
aF0.0
aF0.0
aF0.0
aF0.0
aF0.0
aF0.0
aF0.0
aF0.0
aF0.0
aF0.0
aF0.0
aF0.0
aF0.0
aF0.0
aF0.0
aF0.0
aF0.0
aF0.0
aF0.0
aF0.0
aF0.0
aF0.0
aF0.0
aF0.0
aF0.0
aF0.0
aF0.0
aF0.0
aF0.0
aF0.0
aF0.0
aF0.0
aF0.0
aF0.0
aF0.0
aF0.0
aF0.0
aF0.0
aF0.0
aF0.0
aF0.0
aF0.0
aF0.0
aF0.0
aF0.0
aF0.0
aF0.0
aF0.0
aF0.0
aF0.0
aF0.0
aF0.0
aF0.0
aF0.0
aF0.0
aF0.0
aF0.0
aF0.0
aF0.0
aF0.0
aF0.0
aF0.0
aF0.0
aF0.0
aF0.0
aF0.0
aF0.0
aF0.0
aF0.0
aF0.0
aF0.0
aF0.0
aF0.0
aF0.0
aF0.0
aF0.0
aF0.0
aF0.0
aF0.0
aF0.0
aF0.0
aF0.0
aF0.0
aF0.0
aF0.0
aF0.0
aF0.0
aF0.0
aF0.0
aF0.0
aF0.0
aF0.0
aF0.0
aF0.0
aF0.0
aF0.0
aF0.0
aF0.0
aF0.0
aF0.0
aF0.0
aF0.0
aF0.0
aF0.0
aF0.0
aF0.0
aF0.0
aF0.0
aF0.0
aF0.0
aF0.0
aF0.0
aF0.0
aF0.0
aF0.0
aF0.0
aF0.0
aF0.0
aF0.0
aF0.0
aF0.0
aF0.0
aF0.0
aF0.0
aF0.0
aF0.0
aF0.0
aF0.0
aF0.0
aF0.0
aF0.0
aF0.0
aF0.0
aF0.0
aF0.0
aF0.0
aF0.0
aF0.0
aF0.0
aF0.0
aF0.0
aF0.0
aF0.0
aF0.0
aF0.0
aF0.0
aF0.0
aF0.0
aF0.0
aF0.0
aF0.0
aF0.0
aF0.0
aF0.0
aF0.0
aF0.0
aF0.0
aF0.0
aF0.0
aF0.0
aF0.0
aF0.0
aF0.0
aF0.0
aF0.0
aF0.0
aF0.0
aF0.0
aF0.0
aF0.0
aF0.0
aF0.0
aF0.0
aF0.0
aF0.0
aF0.0
aF0.0
aF0.0
aF0.0
aF0.0
aF0.0
aF0.0
aF0.0
aF0.0
aF0.0
aF0.0
aF0.0
aF0.0
aF0.0
aF0.0
aF0.0
aF0.0
aF0.0
aF0.0
aF0.0
aF0.0
aF0.0
aF0.0
aF0.0
aF0.0
aF0.0
aF0.0
aF0.0
aF0.0
aF0.0
aF0.0
aF0.0
aF0.0
aF0.0
aF0.0
aF0.0
aF0.0
aF0.0
aF0.0
aF0.0
aF0.0
aF0.0
aF0.0
aF0.0
aF0.0
aF0.0
aF0.0
aF0.0
aF0.0
aF0.0
aF0.0
aF0.0
aF0.0
aF0.0
aF0.0
aF0.0
aF0.0
aF0.0
aF0.0
aF0.0
aF0.0
aF0.0
aF0.0
aF0.0
aF0.0
aF0.0
aF0.0
aF0.0
aF0.0
aF0.0
aF0.0
aF0.0
aF0.0
aF0.0
aF0.0
aF0.0
aF0.0
aF0.0
aF0.0
aF0.0
aF0.0
aF0.0
aF0.0
aF0.0
aF0.0
aF0.0
aF0.0
aF0.0
aF0.0
aF0.0
aF0.0
aF0.0
aF0.0
aF0.0
aF0.0
aF0.0
aF0.0
aF0.0
aF0.0
aF0.0
aF0.0
aF0.0
aF0.0
aF0.0
aF0.0
aF0.0
aF0.0
aF0.0
aF0.0
aF0.0
aF0.0
aF0.0
aF0.0
aF0.0
aF0.0
aF0.0
aF0.0
aF0.0
aF0.0
aF0.0
aF0.0
aF0.0
aF0.0
aF0.0
aF0.0
aF0.0
aF0.0
aF0.0
aF0.0
aF0.0
aF0.0
aF0.0
aF0.0
aF0.0
aF0.0
aF0.0
aF0.0
aF0.0
aF0.0
aF0.0
aF0.0
aF0.0
aF0.0
aF0.0
aF0.0
aF0.0
aF0.0
aF0.0
aF0.0
aF0.0
aF0.0
aF0.0
aF0.0
aF0.0
aF0.0
aF0.0
aF0.0
aF0.0
aF0.0
aF0.0
aF0.0
aF0.0
aF0.0
aF0.0
aF0.0
aF0.0
aF0.0
aF0.0
aF0.0
aF0.0
aF0.0
aF0.0
aF0.0
aF0.0
aF0.0
aF0.0
aF0.0
aF0.0
aF0.0
aF0.0
aF0.0
aF0.0
aF0.0
aF0.0
aF0.0
aF0.0
aF0.0
aF0.0
aF0.0
aF0.0
aF0.0
aF0.0
aF0.0
aF0.0
aF0.0
aF0.0
aF0.0
aF0.0
aF0.0
aF0.0
aF0.0
aF0.0
aF0.0
aF0.0
aF0.0
aF0.0
aF0.0
aF0.0
aF0.0
aF0.0
aF0.0
aF0.0
aF0.0
aF0.0
aF0.0
aF0.0
aF0.0
aF0.0
aF0.0
aF0.0
aF0.0
aF0.0
aF0.0
aF0.0
aF0.0
aF0.0
aF0.0
aF0.0
aF0.0
aF0.0
aF0.0
aF0.0
aF0.0
aF0.0
aF0.0
aF0.0
aF0.0
aF0.0
aF0.0
aF0.0
aF0.0
aF0.0
aF0.0
aF0.0
aF0.0
aF0.0
aF0.0
aF0.0
aF0.0
aF0.0
aF0.0
aF0.0
aF0.0
aF0.0
aF0.0
aF0.0
aF0.0
aF0.0
aF0.0
aF0.0
aF0.0
aF0.0
aF0.0
aF0.0
aF0.0
aF0.0
aF0.0
aF0.0
aF0.0
aF0.0
aF0.0
aF0.0
aF0.0
aF0.0
aF0.0
aF0.0
aF0.0
aF0.0
aF0.0
aF0.0
aF0.0
aF0.0
aF0.0
aF0.0
aF0.0
aF0.0
aF0.0
aF0.0
aF0.0
aF0.0
aF0.0
aF0.0
aF0.0
aF0.0
aF0.0
aF0.0
aF0.0
aF0.0
aF0.0
aF0.0
aF0.0
aF0.0
aF0.0
aF0.0
aF0.0
aF0.0
aF0.0
aF0.0
aF0.0
aF0.0
aF0.0
aF0.0
aF0.0
aF0.0
aF0.0
aF0.0
aF0.0
aF0.0
aF0.0
aF0.0
aF0.0
aF0.0
aF0.0
aF0.0
aF0.0
aF0.0
aF0.0
aF0.0
aF0.0
aF0.0
aF0.0
aF0.0
aF0.0
aF0.0
aF0.0
aF0.0
aF0.0
aF0.0
aF0.0
aF0.0
aF0.0
aF0.0
aF0.0
aF0.0
aF0.0
aF0.0
aF0.0
aF0.0
aF0.0
aF0.0
aF0.0
aF0.0
aF0.0
aF0.0
aF0.0
aF0.0
aF0.0
aF0.0
aF0.0
aF0.0
aF0.0
aF0.0
aF0.0
aF0.0
aF0.0
aF0.0
aF0.0
aF0.0
aF0.0
aF0.0
aF0.0
aF0.0
aF0.0
aF0.0
aF0.0
aF0.0
aF0.0
aF0.0
aF0.0
aF0.0
aF0.0
aF0.0
aF0.0
aF0.0
aF0.0
aF0.0
aF0.0
aF0.0
aF0.0
aF0.0
aF0.0
aF0.0
aF0.0
aF0.0
aF0.0
aF0.0
aF0.0
aF0.0
aF0.0
aF0.0
aF0.0
aF0.0
aF0.0
aF0.0
aF0.0
aF0.0
aF0.0
aF0.0
aF0.0
aF0.0
aF0.0
aF0.0
aF0.0
aF0.0
aF0.0
aF0.0
aF0.0
aF0.0
aF0.0
aF0.0
aF0.0
aF0.0
aF0.0
aF0.0
aF0.0
aF0.0
aF0.0
aF0.0
aF0.0
aF0.0
aF0.0
aF0.0
aF0.0
aF0.0
aF0.0
aF0.0
aF0.0
aF0.0
aF0.0
aF0.0
aF0.0
aF0.0
aF0.0
aF0.0
aF0.0
aF0.0
aF0.0
aF0.0
aF0.0
aF0.0
aF0.0
aF0.0
aF0.0
aF0.0
aF0.0
aF0.0
aF0.0
aF0.0
aF0.0
aF0.0
aF0.0
aF0.0
aF0.0
aF0.0
aF0.0
aF0.0
aF0.0
aF0.0
aF0.0
aF0.0
aF0.0
aF0.0
aF0.0
aF0.0
aF0.0
aF0.0
aF0.0
aF0.0
aF0.0
aF0.0
aF0.0
aF0.0
aF0.0
aF0.0
aF0.0
aF0.0
aF0.0
aF0.0
aF0.0
aF0.0
aF0.0
aF0.0
aF0.0
aF0.0
aF0.0
aF0.0
aF0.0
aF0.0
aF0.0
aF0.0
aF0.0
aF0.0
aF0.0
aF0.0
aF0.0
aF0.0
aF0.0
aF0.0
aF0.0
aF0.0
aF0.0
aF0.0
aF0.0
aF0.0
aF0.0
aF0.0
aF0.0
aF0.0
aF0.0
aF0.0
aF0.0
aF0.0
aF0.0
aF0.0
aF0.0
aF0.0
aF0.0
aF0.0
aF0.0
aF0.0
aF0.0
aF0.0
aF0.0
aF0.0
aF0.0
aF0.0
aF0.0
aF0.0
aF0.0
aF0.0
aF0.0
aF0.0
aF0.0
aF0.0
aF0.0
aF0.0
aF0.0
aF0.0
aF0.0
aF0.0
aF0.0
aF0.0
aF0.0
aF0.0
aF0.0
aF0.0
aF0.0
aF0.0
aF0.0
aF0.0
aF0.0
aF0.0
aF0.0
aF0.0
aF0.0
aF0.0
aF0.0
aF0.0
aF0.0
aF0.0
aF0.0
aF0.0
aF0.0
aF0.0
aF0.0
aF0.0
aF0.0
aF0.0
aF0.0
aF0.0
aF0.0
aF0.0
aF0.0
aF0.0
aF0.0
aF0.0
aF0.0
aF0.0
aF0.0
aF0.0
aF0.0
aF0.0
aF0.0
aF0.0
aF0.0
aF0.0
aF0.0
aF0.0
aF0.0
aF0.0
aF0.0
aF0.0
aF0.0
aF0.0
aF0.0
aF0.0
aF0.0
aF0.0
aF0.0
aF0.0
aF0.0
aF0.0
aF0.0
aF0.0
aF0.0
aF0.0
aF0.0
aF0.0
aF0.0
aF0.0
aF0.0
aF0.0
aF0.0
aF0.0
aF0.0
aF0.0
aF0.0
aF0.0
aF0.0
aF0.0
aF0.0
aF0.0
aF0.0
aF0.0
aF0.0
aF0.0
aF0.0
aF0.0
aF0.0
aF0.0
aF0.0
aF0.0
aF0.0
aF0.0
aF0.0
aF0.0
aF0.0
aF0.0
aF0.0
aF0.0
aF0.0
aF0.0
aF0.0
aF0.0
aF0.0
aF0.0
aF0.0
aF0.0
aF0.0
aF0.0
aF0.0
aF0.0
aF0.0
aF0.0
aF0.0
aF0.0
aF0.0
aF0.0
aF0.0
aF0.0
aF0.0
aF0.0
aF0.0
aF0.0
aF0.0
aF0.0
aF0.0
aF0.0
aF0.0
aF0.0
aF0.0
aF0.0
aF0.0
aF0.0
aF0.0
aF0.0
aF0.0
aF0.0
aF0.0
aF0.0
aF0.0
aF0.0
aF0.0
aF0.0
aF0.0
aF0.0
aF0.0
aF0.0
aF0.0
aF0.0
aF0.0
aF0.0
aF0.0
aF0.0
aF0.0
aF0.0
aF0.0
aF0.0
aF0.0
aF0.0
aF0.0
aF0.0
aF0.0
aF0.0
aF0.0
aF0.0
aF0.0
aF0.0
aF0.0
aF0.0
aF0.0
aF0.0
aF0.0
aF0.0
aF0.0
aF0.0
aF0.0
aF0.0
aF0.0
aF0.0
aF0.0
aF0.0
aF0.0
aF0.0
aF0.0
aF0.0
aF0.0
aF0.0
aF0.0
aF0.0
aF0.0
aF0.0
aF0.0
aF0.0
aF0.0
aF0.0
aF0.0
aF0.0
aF0.0
aF0.0
aF0.0
aF0.0
aF0.0
aF0.0
aF0.0
aF0.0
aF0.0
aF0.0
aF0.0
aF0.0
aF0.0
aF0.0
aF0.0
aF0.0
aF0.0
aF0.0
aF0.0
aF0.0
aF0.0
aF0.0
aF0.0
aF0.0
aF0.0
aF0.0
aF0.0
aF0.0
aF0.0
aF0.0
aF0.0
aF0.0
aF0.0
aF0.0
aF0.0
aF0.0
aF0.0
aF0.0
aF0.0
aF0.0
aF0.0
aF0.0
aF0.0
aF0.0
aF0.0
aF0.0
aF0.0
aF0.0
aF0.0
aF0.0
aF0.0
aF0.0
aF0.0
aF0.0
aF0.0
aF0.0
aF0.0
aF0.0
aF0.0
aF0.0
aF0.0
aF0.0
aF0.0
aF0.0
aF0.0
aF0.0
aF0.0
aF0.0
aF0.0
aF0.0
aF0.0
aF0.0
aF0.0
aF0.0
aF0.0
aF0.0
aF0.0
aF0.0
aF0.0
aF0.0
aF0.0
aF0.0
aF0.0
aF0.0
aF0.0
aF0.0
aF0.0
aF0.0
aF0.0
aF0.0
aF0.0
aF0.0
aF0.0
aF0.0
aF0.0
aF0.0
aF0.0
aF0.0
aF0.0
aF0.0
aF0.0
aF0.0
aF0.0
aF0.0
aF0.0
aF0.0
aF0.0
aF0.0
aF0.0
aF0.0
aF0.0
aF0.0
aF0.0
aF0.0
aF0.0
aF0.0
aF0.0
aF0.0
aF0.0
aF0.0
aF0.0
aF0.0
aF0.0
aF0.0
aF0.0
aF0.0
aF0.0
aF0.0
aF0.0
aF0.0
aF0.0
aF0.0
aF0.0
aF0.0
aF0.0
aF0.0
aF0.0
aF0.0
aF0.0
aF0.0
aF0.0
aF0.0
aF0.0
aF0.0
aF0.0
aF0.0
aF0.0
aF0.0
aF0.0
aF0.0
aF0.0
aF0.0
aF0.0
aF0.0
aF0.0
aF0.0
aF0.0
aF0.0
aF0.0
aF0.0
aF0.0
aF0.0
aF0.0
aF0.0
aF0.0
aF0.0
aF0.0
aF0.0
aF0.0
aF0.0
aF0.0
aF0.0
aF0.0
aF0.0
aF0.0
aF0.0
aF0.0
aF0.0
aF0.0
aF0.0
aF0.0
aF0.0
aF0.0
aF0.0
aF0.0
aF0.0
aF0.0
aF0.0
aF0.0
aF0.0
aF0.0
aF0.0
aF0.0
aF0.0
aF0.0
aF0.0
aF0.0
aF0.0
aF0.0
aF0.0
aF0.0
aF0.0
aF0.0
aF0.0
aF0.0
aF0.0
aF0.0
aF0.0
aF0.0
aF0.0
aF0.0
aF0.0
aF0.0
aF0.0
aF0.0
aF0.0
aF0.0
aF0.0
aF0.0
aF0.0
aF0.0
aF0.0
aF0.0
aF0.0
aF0.0
aF0.0
aF0.0
aF0.0
aF0.0
aF0.0
aF0.0
aF0.0
aF0.0
aF0.0
aF0.0
aF0.0
aF0.0
aF0.0
aF0.0
aF0.0
aF0.0
aF0.0
aF0.0
aF0.0
aF0.0
aF0.0
aF0.0
aF0.0
aF0.0
aF0.0
aF0.0
aF0.0
aF0.0
aF0.0
aF0.0
aF0.0
aF0.0
aF0.0
aF0.0
aF0.0
aF0.0
aF0.0
aF0.0
aF0.0
aF0.0
aF0.0
aF0.0
aF0.0
aF0.0
aF0.0
aF0.0
aF0.0
aF0.0
aF0.0
aF0.0
aF0.0
aF0.0
aF0.0
aF0.0
aF0.0
aF0.0
aF0.0
aF0.0
aF0.0
aF0.0
aF0.0
aF0.0
aF0.0
aF0.0
aF0.0
aF0.0
aF0.0
aF0.0
aF0.0
aF0.0
aF0.0
aF0.0
aF0.0
aF0.0
aF0.0
aF0.0
aF0.0
aF0.0
aF0.0
aF0.0
aF0.0
aF0.0
aF0.0
aF0.0
aF0.0
aF0.0
aF0.0
aF0.0
aF0.0
aF0.0
aF0.0
aF0.0
aF0.0
aF0.0
aF0.0
aF0.0
aF0.0
aF0.0
aF0.0
aF0.0
aF0.0
aF0.0
aF0.0
aF0.0
aF0.0
aF0.0
aF0.0
aF0.0
aF0.0
aF0.0
aF0.0
aF0.0
aF0.0
aF0.0
aF0.0
aF0.0
aF0.0
aF0.0
aF0.0
aF0.0
aF0.0
aF0.0
aF0.0
aF0.0
aF0.0
aF0.0
aF0.0
aF0.0
aF0.0
aF0.0
aF0.0
aF0.0
aF0.0
aF0.0
aF0.0
aF0.0
aF0.0
aF0.0
aF0.0
aF0.0
aF0.0
aF0.0
aF0.0
aF0.0
aF0.0
aF0.0
aF0.0
aF0.0
aF0.0
aF0.0
aF0.0
aF0.0
aF0.0
aF0.0
aF0.0
aF0.0
aF0.0
aF0.0
aF0.0
aF0.0
aF0.0
aF0.0
aF0.0
aF0.0
aF0.0
aF0.0
aF0.0
aF0.0
aF0.0
aF0.0
aF0.0
aF0.0
aF0.0
aF0.0
aF0.0
aF0.0
aF0.0
aF0.0
aF0.0
aF0.0
aF0.0
aF0.0
aF0.0
aF0.0
aF0.0
aF0.0
aF0.0
aF0.0
aF0.0
aF0.0
aF0.0
aF0.0
aF0.0
aF0.0
aF0.0
aF0.0
aF0.0
aF0.0
aF0.0
aF0.0
aF0.0
aF0.0
aF0.0
aF0.0
aF0.0
aF0.0
aF0.0
aF0.0
aF0.0
aF0.0
aF0.0
aF0.0
aF0.0
aF0.0
aF0.0
aF0.0
aF0.0
aF0.0
aF0.0
aF0.0
aF0.0
aF0.0
aF0.0
aF0.0
aF0.0
aF0.0
aF0.0
aF0.0
aF0.0
aF0.0
aF0.0
aF0.0
aF0.0
aF0.0
aF0.0
aF0.0
aF0.0
aF0.0
aF0.0
aF0.0
aF0.0
aF0.0
aF0.0
aF0.0
aF0.0
aF0.0
aF0.0
aF0.0
aF0.0
aF0.0
aF0.0
aF0.0
aF0.0
aF0.0
aF0.0
aF0.0
aF0.0
aF0.0
aF0.0
aF0.0
aF0.0
aF0.0
aF0.0
aF0.0
aF0.0
aF0.0
aF0.0
aF0.0
aF0.0
aF0.0
aF0.0
aF0.0
aF0.0
aF0.0
aF0.0
aF0.0
aF0.0
aF0.0
aF0.0
aF0.0
aF0.0
aF0.0
aF0.0
aF0.0
aF0.0
aF0.0
aF0.0
aF0.0
aF0.0
aF0.0
aF0.0
aF0.0
aF0.0
aF0.0
aF0.0
aF0.0
aF0.0
aF0.0
aF0.0
aF0.0
aF0.0
aF0.0
aF0.0
aF0.0
aF0.0
aF0.0
aF0.0
aF0.0
aF0.0
aF0.0
aF0.0
aF0.0
aF0.0
aF0.0
aF0.0
aF0.0
aF0.0
aF0.0
aF0.0
aF0.0
aF0.0
aF0.0
aF0.0
aF0.0
aF0.0
aF0.0
aF0.0
aF0.0
aF0.0
aF0.0
aF0.0
aF0.0
aF0.0
aF0.0
aF0.0
aF0.0
aF0.0
aF0.0
aF0.0
aF0.0
aF0.0
aF0.0
aF0.0
aF0.0
aF0.0
aF0.0
aF0.0
aF0.0
aF0.0
aF0.0
aF0.0
aF0.0
aF0.0
aF0.0
aF0.0
aF0.0
aF0.0
aF0.0
aF0.0
aF0.0
aF0.0
aF0.0
aF0.0
aF0.0
aF0.0
aF0.0
aF0.0
aF0.0
aF0.0
aF0.0
aF0.0
aF0.0
aF0.0
aF0.0
aF0.0
aF0.0
aF0.0
aF0.0
aF0.0
aF0.0
aF0.0
aF0.0
aF0.0
aF0.0
aF0.0
aF0.0
aF0.0
aF0.0
aF0.0
aF0.0
aF0.0
aF0.0
aF0.0
aF0.0
aF0.0
aF0.0
aF0.0
aF0.0
aF0.0
aF0.0
aF0.0
aF0.0
aF0.0
aF0.0
aF0.0
aF0.0
aF0.0
aF0.0
aF0.0
aF0.0
aF0.0
aF0.0
aF0.0
aF0.0
aF0.0
aF0.0
aF0.0
aF0.0
aF0.0
aF0.0
aF0.0
aF0.0
aF0.0
aF0.0
aF0.0
aF0.0
aF0.0
aF0.0
aF0.0
aF0.0
aF0.0
aF0.0
aF0.0
aF0.0
aF0.0
aF0.0
aF0.0
aF0.0
aF0.0
aF0.0
aF0.0
aF0.0
aF0.0
aF0.0
aF0.0
aF0.0
aF0.0
aF0.0
aF0.0
aF0.0
aF0.0
aF0.0
aF0.0
aF0.0
aF0.0
aF0.0
aF0.0
aF0.0
aF0.0
aF0.0
aF0.0
aF0.0
aF0.0
aF0.0
aF0.0
aF0.0
aF0.0
aF0.0
aF0.0
aF0.0
aF0.0
aF0.0
aF0.0
aF0.0
aF0.0
aF0.0
aF0.0
aF0.0
aF0.0
aF0.0
aF0.0
aF0.0
aF0.0
aF0.0
aF0.0
aF0.0
aF0.0
aF0.0
aF0.0
aF0.0
aF0.0
aF0.0
aF0.0
aF0.0
aF0.0
aF0.0
aF0.0
aF0.0
aF0.0
aF0.0
aF0.0
aF0.0
aF0.0
aF0.0
aF0.0
aF0.0
aF0.0
aF0.0
aF0.0
aF0.0
aF0.0
aF0.0
aF0.0
aF0.0
aF0.0
aF0.0
aF0.0
aF0.0
aF0.0
aF0.0
aF0.0
aF0.0
aF0.0
aF0.0
aF0.0
aF0.0
aF0.0
aF0.0
aF0.0
aF0.0
aF0.0
aF0.0
aF0.0
aF0.0
aF0.0
aF0.0
aF0.0
aF0.0
aF0.0
aF0.0
aF0.0
aF0.0
aF0.0
aF0.0
aF0.0
aF0.0
aF0.0
aF0.0
aF0.0
aF0.0
aF0.0
aF0.0
aF0.0
aF0.0
aF0.0
aF0.0
aF0.0
aF0.0
aF0.0
aF0.0
aF0.0
aF0.0
aF0.0
aF0.0
aF0.0
aF0.0
aF0.0
aF0.0
aF0.0
aF0.0
aF0.0
aF0.0
aF0.0
aF0.0
aF0.0
aF0.0
aF0.0
aF0.0
aF0.0
aF0.0
aF0.0
aF0.0
aF0.0
aF0.0
aF0.0
aF0.0
aF0.0
aF0.0
aF0.0
aF0.0
aF0.0
aF0.0
aF0.0
aF0.0
aF0.0
aF0.0
aF0.0
aF0.0
aF0.0
aF0.0
aF0.0
aF0.0
aF0.0
aF0.0
aF0.0
aF0.0
aF0.0
aF0.0
aF0.0
aF0.0
aF0.0
aF0.0
aF0.0
aF0.0
aF0.0
aF0.0
aF0.0
aF0.0
aF0.0
aF0.0
aF0.0
aF0.0
aF0.0
aF0.0
aF0.0
aF0.0
aF0.0
aF0.0
aF0.0
aF0.0
aF0.0
aF0.0
aF0.0
aF0.0
aF0.0
aF0.0
aF0.0
aF0.0
aF0.0
aF0.0
aF0.0
aF0.0
aF0.0
aF0.0
aF0.0
aF0.0
aF0.0
aF0.0
aF0.0
aF0.0
aF0.0
aF0.0
aF0.0
aF0.0
aF0.0
aF0.0
aF0.0
aF0.0
aF0.0
aF0.0
aF0.0
aF0.0
aF0.0
aF0.0
aF0.0
aF0.0
aF0.0
aF0.0
aF0.0
aF0.0
aF0.0
aF0.0
aF0.0
aF0.0
aF0.0
aF0.0
aF0.0
aF0.0
aF0.0
aF0.0
aF0.0
aF0.0
aF0.0
aF0.0
aF0.0
aF0.0
aF0.0
aF0.0
aF0.0
aF0.0
aF0.0
aF0.0
aF0.0
aF0.0
aF0.0
aF0.0
aF0.0
aF0.0
aF0.0
aF0.0
aF0.0
aF0.0
aF0.0
aF0.0
aF0.0
aF0.0
aF0.0
aF0.0
aF0.0
aF0.0
aF0.0
aF0.0
aF0.0
aF0.0
aF0.0
aF0.0
aF0.0
aF0.0
aF0.0
aF0.0
aF0.0
aF0.0
aF0.0
aF0.0
aF0.0
aF0.0
aF0.0
aF0.0
aF0.0
aF0.0
aF0.0
aF0.0
aF0.0
aF0.0
aF0.0
aF0.0
aF0.0
aF0.0
aF0.0
aF0.0
aF0.0
aF0.0
aF0.0
aF0.0
aF0.0
aF0.0
aF0.0
aF0.0
aF0.0
aF0.0
aF0.0
aF0.0
aF0.0
aF0.0
aF0.0
aF0.0
aF0.0
aF0.0
aF0.0
aF0.0
aF0.0
aF0.0
aF0.0
aF0.0
aF0.0
aF0.0
aF0.0
aF0.0
aF0.0
aF0.0
aF0.0
aF0.0
aF0.0
aF0.0
aF0.0
aF0.0
aF0.0
aF0.0
aF0.0
aF0.0
aF0.0
aF0.0
aF0.0
aF0.0
aF0.0
aF0.0
aF0.0
aF0.0
aF0.0
aF0.0
aF0.0
aF0.0
aF0.0
aF0.0
aF0.0
aF0.0
aF0.0
aF0.0
aF0.0
aF0.0
aF0.0
aF0.0
aF0.0
aF0.0
aF0.0
aF0.0
aF0.0
aF0.0
aF0.0
aF0.0
aF0.0
aF0.0
aF0.0
aF0.0
aF0.0
aF0.0
aF0.0
aF0.0
aF0.0
aF0.0
aF0.0
aF0.0
aF0.0
aF0.0
aF0.0
aF0.0
aF0.0
aF0.0
aF0.0
aF0.0
aF0.0
aF0.0
aF0.0
aF0.0
aF0.0
aF0.0
aF0.0
aF0.0
aF0.0
aF0.0
aF0.0
aF0.0
aF0.0
aF0.0
aF0.0
aF0.0
aF0.0
aF0.0
aF0.0
aF0.0
aF0.0
aF0.0
aF0.0
aF0.0
aF0.0
aF0.0
aF0.0
aF0.0
aF0.0
aF0.0
aF0.0
aF0.0
aF0.0
aF0.0
aF0.0
aF0.0
aF0.0
aF0.0
aF0.0
aF0.0
aF0.0
aF0.0
aF0.0
aF0.0
aF0.0
aF0.0
aF0.0
aF0.0
aF0.0
aF0.0
aF0.0
aF0.0
aF0.0
aF0.0
aF0.0
aF0.0
aF0.0
aF0.0
aF0.0
aF0.0
aF0.0
aF0.0
aF0.0
aF0.0
aF0.0
aF0.0
aF0.0
aF0.0
aF0.0
aF0.0
aF0.0
aF0.0
aF0.0
aF0.0
aF0.0
aF0.0
aF0.0
aF0.0
aF0.0
aF0.0
aF0.0
aF0.0
aF0.0
aF0.0
aF0.0
aF0.0
aF0.0
aF0.0
aF0.0
aF0.0
aF0.0
aF0.0
aF0.0
aF0.0
aF0.0
aF0.0
aF0.0
aF0.0
aF0.0
aF0.0
aF0.0
aF0.0
aF0.0
aF0.0
aF0.0
aF0.0
aF0.0
aF0.0
aF0.0
aF0.0
aF0.0
aF0.0
aF0.0
aF0.0
aF0.0
aF0.0
aF0.0
aF0.0
aF0.0
aF0.0
aF0.0
aF0.0
aF0.0
aF0.0
aF0.0
aF0.0
aF0.0
aF0.0
aF0.0
aF0.0
aF0.0
aF0.0
aF0.0
aF0.0
aF0.0
aF0.0
aF0.0
aF0.0
aF0.0
aF0.0
aF0.0
aF0.0
aF0.0
aF0.0
aF0.0
aF0.0
aF0.0
aF0.0
aF0.0
aF0.0
aF0.0
aF0.0
aF0.0
aF0.0
aF0.0
aF0.0
aF0.0
aF0.0
aF0.0
aF0.0
aF0.0
aF0.0
aF0.0
aF0.0
aF0.0
aF0.0
aF0.0
aF0.0
aF0.0
aF0.0
aF0.0
aF0.0
aF0.0
aF0.0
aF0.0
aF0.0
aF0.0
aF0.0
aF0.0
aF0.0
aF0.0
aF0.0
aF0.0
aF0.0
aF0.0
aF0.0
aF0.0
aF0.0
aF0.0
aF0.0
aF0.0
aF0.0
aF0.0
aF0.0
aF0.0
aF0.0
aF0.0
aF0.0
aF0.0
aF0.0
aF0.0
aF0.0
aF0.0
aF0.0
aF0.0
aF0.0
aF0.0
aF0.0
aF0.0
aF0.0
aF0.0
aF0.0
aF0.0
aF0.0
aF0.0
aF0.0
aF0.0
aF0.0
aF0.0
aF0.0
aF0.0
aF0.0
aF0.0
aF0.0
aF0.0
aF0.0
aF0.0
aF0.0
aF0.0
aF0.0
aF0.0
aF0.0
aF0.0
aF0.0
aF0.0
aF0.0
aF0.0
aF0.0
aF0.0
aF0.0
aF0.0
aF0.0
aF0.0
aF0.0
aF0.0
aF0.0
aF0.0
aF0.0
aF0.0
aF0.0
aF0.0
aF0.0
aF0.0
aF0.0
aF0.0
aF0.0
aF0.0
aF0.0
aF0.0
aF0.0
aF0.0
aF0.0
aF0.0
aF0.0
aF0.0
aF0.0
aF0.0
aF0.0
aF0.0
aF0.0
aF0.0
aF0.0
aF0.0
aF0.0
aF0.0
aF0.0
aF0.0
aF0.0
aF0.0
aF0.0
aF0.0
aF0.0
aF0.0
aF0.0
aF0.0
aF0.0
aF0.0
aF0.0
aF0.0
aF0.0
aF0.0
aF0.0
aF0.0
aF0.0
aF0.0
aF0.0
aF0.0
aF0.0
aF0.0
aF0.0
aF0.0
aF0.0
aF0.0
aF0.0
aF0.0
aF0.0
aF0.0
aF0.0
aF0.0
aF0.0
aF0.0
aF0.0
aF0.0
aF0.0
aF0.0
aF0.0
aF0.0
aF0.0
aF0.0
aF0.0
aF0.0
aF0.0
aF0.0
aF0.0
aF0.0
aF0.0
aF0.0
aF0.0
aF0.0
aF0.0
aF0.0
aF0.0
aF0.0
aF0.0
aF0.0
aF0.0
aF0.0
aF0.0
aF0.0
aF0.0
aF0.0
aF0.0
aF0.0
aF0.0
aF0.0
aF0.0
aF0.0
aF0.0
aF0.0
aF0.0
aF0.0
aF0.0
aF0.0
aF0.0
aF0.0
aF0.0
aF0.0
aF0.0
aF0.0
aF0.0
aF0.0
aF0.0
aF0.0
aF0.0
aF0.0
aF0.0
aF0.0
aF0.0
aF0.0
aF0.0
aF0.0
aF0.0
aF0.0
aF0.0
aF0.0
aF0.0
aF0.0
aF0.0
aF0.0
aF0.0
aF0.0
aF0.0
aF0.0
aF0.0
aF0.0
aF0.0
aF0.0
aF0.0
aF0.0
aF0.0
aF0.0
aF0.0
aF0.0
aF0.0
aF0.0
aF0.0
aF0.0
aF0.0
aF0.0
aF0.0
aF0.0
aF0.0
aF0.0
aF0.0
aF0.0
aF0.0
aF0.0
aF0.0
aF0.0
aF0.0
aF0.0
aF0.0
aF0.0
aF0.0
aF0.0
aF0.0
aF0.0
aF0.0
aF0.0
aF0.0
aF0.0
aF0.0
aF0.0
aF0.0
aF0.0
aF0.0
aF0.0
aF0.0
aF0.0
aF0.0
aF0.0
aF0.0
aF0.0
aF0.0
aF0.0
aF0.0
aF0.0
aF0.0
aF0.0
aF0.0
aF0.0
aF0.0
aF0.0
aF0.0
aF0.0
aF0.0
aF0.0
aF0.0
aF0.0
aF0.0
aF0.0
aF0.0
aF0.0
aF0.0
aF0.0
aF0.0
aF0.0
aF0.0
aF0.0
aF0.0
aF0.0
aF0.0
aF0.0
aF0.0
aF0.0
aF0.0
aF0.0
aF0.0
aF0.0
aF0.0
aF0.0
aF0.0
aF0.0
aF0.0
aF0.0
aF0.0
aF0.0
aF0.0
aF0.0
aF0.0
aF0.0
aF0.0
aF0.0
aF0.0
aF0.0
aF0.0
aF0.0
aF0.0
aF0.0
aF0.0
aF0.0
aF0.0
aF0.0
aF0.0
aF0.0
aF0.0
aF0.0
aF0.0
aF0.0
aF0.0
aF0.0
aF0.0
aF0.0
aF0.0
aF0.0
aF0.0
aF0.0
aF0.0
aF0.0
aF0.0
aF0.0
aF0.0
aF0.0
aF0.0
aF0.0
aF0.0
aF0.0
aF0.0
aF0.0
aF0.0
aF0.0
aF0.0
aF0.0
aF0.0
aF0.0
aF0.0
aF0.0
aF0.0
aF0.0
aF0.0
aF0.0
aF0.0
aF0.0
aF0.0
aF0.0
aF0.0
aF0.0
aF0.0
aF0.0
aF0.0
aF0.0
aF0.0
aF0.0
aF0.0
aF0.0
aF0.0
aF0.0
aF0.0
aF0.0
aF0.0
aF0.0
aF0.0
aF0.0
aF0.0
aF0.0
aF0.0
aF0.0
aF0.0
aF0.0
aF0.0
aF0.0
aF0.0
aF0.0
aF0.0
aF0.0
aF0.0
aF0.0
aF0.0
aF0.0
aF0.0
aF0.0
aF0.0
aF0.0
aF0.0
aF0.0
aF0.0
aF0.0
aF0.0
aF0.0
aF0.0
aF0.0
aF0.0
aF0.0
aF0.0
aF0.0
aF0.0
aF0.0
aF0.0
aF0.0
aF0.0
aF0.0
aF0.0
aF0.0
aF0.0
aF0.0
aF0.0
aF0.0
aF0.0
aF0.0
aF0.0
aF0.0
aF0.0
aF0.0
aF0.0
aF0.0
aF0.0
aF0.0
aF0.0
aF0.0
aF0.0
aF0.0
aF0.0
aF0.0
aF0.0
aF0.0
aF0.0
aF0.0
aF0.0
aF0.0
aF0.0
aF0.0
aF0.0
aF0.0
aF0.0
aF0.0
aF0.0
aF0.0
aF0.0
aF0.0
aF0.0
aF0.0
aF0.0
aF0.0
aF0.0
aF0.0
aF0.0
aF0.0
aF0.0
aF0.0
aF0.0
aF0.0
aF0.0
aF0.0
aF0.0
aF0.0
aF0.0
aF0.0
aF0.0
aF0.0
aF0.0
aF0.0
aF0.0
aF0.0
aF0.0
aF0.0
aF0.0
aF0.0
aF0.0
aF0.0
aF0.0
aF0.0
aF0.0
aF0.0
aF0.0
aF0.0
aF0.0
aF0.0
aF0.0
aF0.0
aF0.0
aF0.0
aF0.0
aF0.0
aF0.0
aF0.0
aF0.0
aF0.0
aF0.0
aF0.0
aF0.0
aF0.0
aF0.0
aF0.0
aF0.0
aF0.0
aF0.0
aF0.0
aF0.0
aF0.0
aF0.0
aF0.0
aF0.0
aF0.0
aF0.0
aF0.0
aF0.0
aF0.0
aF0.0
aF0.0
aF0.0
aF0.0
aF0.0
aF0.0
aF0.0
aF0.0
aF0.0
aF0.0
aF0.0
aF0.0
aF0.0
aF0.0
aF0.0
aF0.0
aF0.0
aF0.0
aF0.0
aF0.0
aF0.0
aF0.0
aF0.0
aF0.0
aF0.0
aF0.0
aF0.0
aF0.0
aF0.0
aF0.0
aF0.0
aF0.0
aF0.0
aF0.0
aF0.0
aF0.0
aF0.0
aF0.0
aF0.0
aF0.0
aF0.0
aF0.0
aF0.0
aF0.0
aF0.0
aF0.0
aF0.0
aF0.0
aF0.0
aF0.0
aF0.0
aF0.0
aF0.0
aF0.0
aF0.0
aF0.0
aF0.0
aF0.0
aF0.0
aF0.0
aF0.0
aF0.0
aF0.0
aF0.0
aF0.0
aF0.0
aF0.0
aF0.0
aF0.0
aF0.0
aF0.0
aF0.0
aF0.0
aF0.0
aF0.0
aF0.0
aF0.0
aF0.0
aF0.0
aF0.0
aF0.0
aF0.0
aF0.0
aF0.0
aF0.0
aF0.0
aF0.0
aF0.0
aF0.0
aF0.0
aF0.0
aF0.0
aF0.0
aF0.0
aF0.0
aF0.0
aF0.0
aF0.0
aF0.0
aF0.0
aF0.0
aF0.0
aF0.0
aF0.0
aF0.0
aF0.0
aF0.0
aF0.0
aF0.0
aF0.0
aF0.0
aF0.0
aF0.0
aF0.0
aF0.0
aF0.0
aF0.0
aF0.0
aF0.0
aF0.0
aF0.0
aF0.0
aF0.0
aF0.0
aF0.0
aF0.0
aF0.0
aF0.0
aF0.0
aF0.0
aF0.0
aF0.0
aF0.0
aF0.0
aF0.0
aF0.0
aF0.0
aF0.0
aF0.0
aF0.0
aF0.0
aF0.0
aF0.0
aF0.0
aF0.0
aF0.0
aF0.0
aF0.0
aF0.0
aF0.0
aF0.0
aF0.0
aF0.0
aF0.0
aF0.0
aF0.0
aF0.0
aF0.0
aF0.0
aF0.0
aF0.0
aF0.0
aF0.0
aF0.0
aF0.0
aF0.0
aF0.0
aF0.0
aF0.0
aF0.0
aF0.0
aF0.0
aF0.0
aF0.0
aF0.0
aF0.0
aF0.0
aF0.0
aF0.0
aF0.0
aF0.0
aF0.0
aF0.0
aF0.0
aF0.0
aF0.0
aF0.0
aF0.0
aF0.0
aF0.0
aF0.0
aF0.0
aF0.0
aF0.0
aF0.0
aF0.0
aF0.0
aF0.0
aF0.0
aF0.0
aF0.0
aF0.0
aF0.0
aF0.0
aF0.0
aF0.0
aF0.0
aF0.0
aF0.0
aF0.0
aF0.0
aF0.0
aF0.0
aF0.0
aF0.0
aF0.0
aF0.0
aF0.0
aF0.0
aF0.0
aF0.0
aF0.0
aF0.0
aF0.0
aF0.0
aF0.0
aF0.0
aF0.0
aF0.0
aF0.0
aF0.0
aF0.0
aF0.0
aF0.0
aF0.0
aF0.0
aF0.0
aF0.0
aF0.0
aF0.0
aF0.0
aF0.0
aF0.0
aF0.0
aF0.0
aF0.0
aF0.0
aF0.0
aF0.0
aF0.0
aF0.0
aF0.0
aF0.0
aF0.0
aF0.0
aF0.0
aF0.0
aF0.0
aF0.0
aF0.0
aF0.0
aF0.0
aF0.0
aF0.0
aF0.0
aF0.0
aF0.0
aF0.0
aF0.0
aF0.0
aF0.0
aF0.0
aF0.0
aF0.0
aF0.0
aF0.0
aF0.0
aF0.0
aF0.0
aF0.0
aF0.0
aF0.0
aF0.0
aF0.0
aF0.0
aF0.0
aF0.0
aF0.0
aF0.0
aF0.0
aF0.0
aF0.0
aF0.0
aF0.0
aF0.0
aF0.0
aF0.0
aF0.0
aF0.0
aF0.0
aF0.0
aF0.0
aF0.0
aF0.0
aF0.0
aF0.0
aF0.0
aF0.0
aF0.0
aF0.0
aF0.0
aF0.0
aF0.0
aF0.0
aF0.0
aF0.0
aF0.0
aF0.0
aF0.0
aF0.0
aF0.0
aF0.0
aF0.0
aF0.0
aF0.0
aF0.0
aF0.0
aF0.0
aF0.0
aF0.0
aF0.0
aF0.0
aF0.0
aF0.0
aF0.0
aF0.0
aF0.0
aF0.0
aF0.0
aF0.0
aF0.0
aF0.0
aF0.0
aF0.0
aF0.0
aF0.0
aF0.0
aF0.0
aF0.0
aF0.0
aF0.0
aF0.0
aF0.0
aF0.0
aF0.0
aF0.0
aF0.0
aF0.0
aF0.0
aF0.0
aF0.0
aF0.0
aF0.0
aF0.0
aF0.0
aF0.0
aF0.0
aF0.0
aF0.0
aF0.0
aF0.0
aF0.0
aF0.0
aF0.0
aF0.0
aF0.0
aF0.0
aF0.0
aF0.0
aF0.0
aF0.0
aF0.0
aF0.0
aF0.0
aF0.0
aF0.0
aF0.0
aF0.0
aF0.0
aF0.0
aF0.0
aF0.0
aF0.0
aF0.0
aF0.0
aF0.0
aF0.0
aF0.0
aF0.0
aF0.0
aF0.0
aF0.0
aF0.0
aF0.0
aF0.0
aF0.0
aF0.0
aF0.0
aF0.0
aF0.0
aF0.0
aF0.0
aF0.0
aF0.0
aF0.0
aF0.0
aF0.0
aF0.0
aF0.0
aF0.0
aF0.0
aF0.0
aF0.0
aF0.0
aF0.0
aF0.0
aF0.0
aF0.0
aF0.0
aF0.0
aF0.0
aF0.0
aF0.0
aF0.0
aF0.0
aF0.0
aF0.0
aF0.0
aF0.0
aF0.0
aF0.0
aF0.0
aF0.0
aF0.0
aF0.0
aF0.0
aF0.0
aF0.0
aF0.0
aF0.0
aF0.0
aF0.0
aF0.0
aF0.0
aF0.0
aF0.0
aF0.0
aF0.0
aF0.0
aF0.0
aF0.0
aF0.0
aF0.0
aF0.0
aF0.0
aF0.0
aF0.0
aF0.0
aF0.0
aF0.0
aF0.0
aF0.0
aF0.0
aF0.0
aF0.0
aF0.0
aF0.0
aF0.0
aF0.0
aF0.0
aF0.0
aF0.0
aF0.0
aF0.0
aF0.0
aF0.0
aF0.0
aF0.0
aF0.0
aF0.0
aF0.0
aF0.0
aF0.0
aF0.0
aF0.0
aF0.0
aF0.0
aF0.0
aF0.0
aF0.0
aF0.0
aF0.0
aF0.0
aF0.0
aF0.0
aF0.0
aF0.0
aF0.0
aF0.0
aF0.0
aF0.0
aF0.0
aF0.0
aF0.0
aF0.0
aF0.0
aF0.0
aF0.0
aF0.0
aF0.0
aF0.0
aF0.0
aF0.0
aF0.0
aF0.0
aF0.0
aF0.0
aF0.0
aF0.0
aF0.0
aF0.0
aF0.0
aF0.0
aF0.0
aF0.0
aF0.0
aF0.0
aF0.0
aF0.0
aF0.0
aF0.0
aF0.0
aF0.0
aF0.0
aF0.0
aF0.0
aF0.0
aF0.0
aF0.0
aF0.0
aF0.0
aF0.0
aF0.0
aF0.0
aF0.0
aF0.0
aF0.0
aF0.0
aF0.0
aF0.0
aF0.0
aF0.0
aF0.0
aF0.0
aF0.0
aF0.0
aF0.0
aF0.0
aF0.0
aF0.0
aF0.0
aF0.0
aF0.0
aF0.0
aF0.0
aF0.0
aF0.0
aF0.0
aF0.0
aF0.0
aF0.0
aF0.0
aF0.0
aF0.0
aF0.0
aF0.0
aF0.0
aF0.0
aF0.0
aF0.0
aF0.0
aF0.0
aF0.0
aF0.0
aF0.0
aF0.0
aF0.0
aF0.0
aF0.0
aF0.0
aF0.0
aF0.0
aF0.0
aF0.0
aF0.0
aF0.0
aF0.0
aF0.0
aF0.0
aF0.0
aF0.0
aF0.0
aF0.0
aF0.0
aF0.0
aF0.0
aF0.0
aF0.0
aF0.0
aF0.0
aF0.0
aF0.0
aF0.0
aF0.0
aF0.0
aF0.0
aF0.0
aF0.0
aF0.0
aF0.0
aF0.0
aF0.0
aF0.0
aF0.0
aF0.0
aF0.0
aF0.0
aF0.0
aF0.0
aF0.0
aF0.0
aF0.0
aF0.0
aF0.0
aF0.0
aF0.0
aF0.0
aF0.0
aF0.0
aF0.0
aF0.0
aF0.0
aF0.0
aF0.0
aF0.0
aF0.0
aF0.0
aF0.0
aF0.0
aF0.0
aF0.0
aF0.0
aF0.0
aF0.0
aF0.0
aF0.0
aF0.0
aF0.0
aF0.0
aF0.0
aF0.0
aF0.0
aF0.0
aF0.0
aF0.0
aF0.0
aF0.0
aF0.0
aF0.0
aF0.0
aF0.0
aF0.0
aF0.0
aF0.0
aF0.0
aF0.0
aF0.0
aF0.0
aF0.0
aF0.0
aF0.0
aF0.0
aF0.0
aF0.0
aF0.0
aF0.0
aF0.0
aF0.0
aF0.0
aF0.0
aF0.0
aF0.0
aF0.0
aF0.0
aF0.0
aF0.0
aF0.0
aF0.0
aF0.0
aF0.0
aF0.0
aF0.0
aF0.0
aF0.0
aF0.0
aF0.0
aF0.0
aF0.0
aF0.0
aF0.0
aF0.0
aF0.0
aF0.0
aF0.0
aF0.0
aF0.0
aF0.0
aF0.0
aF0.0
aF0.0
aF0.0
aF0.0
aF0.0
aF0.0
aF0.0
aF0.0
aF0.0
aF0.0
aF0.0
aF0.0
aF0.0
aF0.0
aF0.0
aF0.0
aF0.0
aF0.0
aF0.0
aF0.0
aF0.0
aF0.0
aF0.0
aF0.0
aF0.0
aF0.0
aF0.0
aF0.0
aF0.0
aF0.0
aF0.0
aF0.0
aF0.0
aF0.0
aF0.0
aF0.0
aF0.0
aF0.0
aF0.0
aF0.0
aF0.0
aF0.0
aF0.0
aF0.0
aF0.0
aF0.0
aF0.0
aF0.0
aF0.0
aF0.0
aF0.0
aF0.0
aF0.0
aF0.0
aF0.0
aF0.0
aF0.0
aF0.0
aF0.0
aF0.0
aF0.0
aF0.0
aF0.0
aF0.0
aF0.0
aF0.0
aF0.0
aF0.0
aF0.0
aF0.0
aF0.0
aF0.0
aF0.0
aF0.0
aF0.0
aF0.0
aF0.0
aF0.0
aF0.0
aF0.0
aF0.0
aF0.0
aF0.0
aF0.0
aF0.0
aF0.0
aF0.0
aF0.0
aF0.0
aF0.0
aF0.0
aF0.0
aF0.0
aF0.0
aF0.0
aF0.0
aF0.0
aF0.0
aF0.0
aF0.0
aF0.0
aF0.0
aF0.0
aF0.0
aF0.0
aF0.0
aF0.0
aF0.0
aF0.0
aF0.0
aF0.0
aF0.0
aF0.0
aF0.0
aF0.0
aF0.0
aF0.0
aF0.0
aF0.0
aF0.0
aF0.0
aF0.0
aF0.0
aF0.0
aF0.0
aF0.0
aF0.0
aF0.0
aF0.0
aF0.0
aF0.0
aF0.0
aF0.0
aF0.0
aF0.0
aF0.0
aF0.0
aF0.0
aF0.0
aF0.0
aF0.0
aF0.0
aF0.0
aF0.0
aF0.0
aF0.0
aF0.0
aF0.0
aF0.0
aF0.0
aF0.0
aF0.0
aF0.0
aF0.0
aF0.0
aF0.0
aF0.0
aF0.0
aF0.0
aF0.0
aF0.0
aF0.0
aF0.0
aF0.0
aF0.0
aF0.0
aF0.0
aF0.0
aF0.0
aF0.0
aF0.0
aF0.0
aF0.0
aF0.0
aF0.0
aF0.0
aF0.0
aF0.0
aF0.0
aF0.0
aF0.0
aF0.0
aF0.0
aF0.0
aF0.0
aF0.0
aF0.0
aF0.0
aF0.0
aF0.0
aF0.0
aF0.0
aF0.0
aF0.0
aF0.0
aF0.0
aF0.0
aF0.0
aF0.0
aF0.0
aF0.0
aF0.0
aF0.0
aF0.0
aF0.0
aF0.0
aF0.0
aF0.0
aF0.0
aF0.0
aF0.0
aF0.0
aF0.0
aF0.0
aF0.0
aF0.0
aF0.0
aF0.0
aF0.0
aF0.0
aF0.0
aF0.0
aF0.0
aF0.0
aF0.0
aF0.0
aF0.0
aF0.0
aF0.0
aF0.0
aF0.0
aF0.0
aF0.0
aF0.0
aF0.0
aF0.0
aF0.0
aF0.0
aF0.0
aF0.0
aF0.0
aF0.0
aF0.0
aF0.0
aF0.0
aF0.0
aF0.0
aF0.0
aF0.0
aF0.0
aF0.0
aF0.0
aF0.0
aF0.0
aF0.0
aF0.0
aF0.0
aF0.0
aF0.0
aF0.0
aF0.0
aF0.0
aF0.0
aF0.0
aF0.0
aF0.0
aF0.0
aF0.0
aF0.0
aF0.0
aF0.0
aF0.0
aF0.0
aF0.0
aF0.0
aF0.0
aF0.0
aF0.0
aF0.0
aF0.0
aF0.0
aF0.0
aF0.0
aF0.0
aF0.0
aF0.0
aF0.0
aF0.0
aF0.0
aF0.0
aF0.0
aF0.0
aF0.0
aF0.0
aF0.0
aF0.0
aF0.0
aF0.0
aF0.0
aF0.0
aF0.0
aF0.0
aF0.0
aF0.0
aF0.0
aF0.0
aF0.0
aF0.0
aF0.0
aF0.0
aF0.0
aF0.0
aF0.0
aF0.0
aF0.0
aF0.0
aF0.0
aF0.0
aF0.0
aF0.0
aF0.0
aF0.0
aF0.0
aF0.0
aF0.0
aF0.0
aF0.0
aF0.0
aF0.0
aF0.0
aF0.0
aF0.0
aF0.0
aF0.0
aF0.0
aF0.0
aF0.0
aF0.0
aF0.0
aF0.0
aF0.0
aF0.0
aF0.0
aF0.0
aF0.0
aF0.0
aF0.0
aF0.0
aF0.0
aF0.0
aF0.0
aF0.0
aF0.0
aF0.0
aF0.0
aF0.0
aF0.0
aF0.0
aF0.0
aF0.0
aF0.0
aF0.0
aF0.0
aF0.0
aF0.0
aF0.0
aF0.0
aF0.0
aF0.0
aF0.0
aF0.0
aF0.0
aF0.0
aF0.0
aF0.0
aF0.0
aF0.0
aF0.0
aF0.0
aF0.0
aF0.0
aF0.0
aF0.0
aF0.0
aF0.0
aF0.0
aF0.0
aF0.0
aF0.0
aF0.0
aF0.0
aF0.0
aF0.0
aF0.0
aF0.0
aF0.0
aF0.0
aF0.0
aF0.0
aF0.0
aF0.0
aF0.0
aF0.0
aF0.0
aF0.0
aF0.0
aF0.0
aF0.0
aF0.0
aF0.0
aF0.0
aF0.0
aF0.0
aF0.0
aF0.0
aF0.0
aF0.0
aF0.0
aF0.0
aF0.0
aF0.0
aF0.0
aF0.0
aF0.0
aF0.0
aF0.0
aF0.0
aF0.0
aF0.0
aF0.0
aF0.0
aF0.0
aF0.0
aF0.0
aF0.0
aF0.0
aF0.0
aF0.0
aF0.0
aF0.0
aF0.0
aF0.0
aF0.0
aF0.0
aF0.0
aF0.0
aF0.0
aF0.0
aF0.0
aF0.0
aF0.0
aF0.0
aF0.0
aF0.0
aF0.0
aF0.0
aF0.0
aF0.0
aF0.0
aF0.0
aF0.0
aF0.0
aF0.0
aF0.0
aF0.0
aF0.0
aF0.0
aF0.0
aF0.0
aF0.0
aF0.0
aF0.0
aF0.0
aF0.0
aF0.0
aF0.0
aF0.0
aF0.0
aF0.0
aF0.0
aF0.0
aF0.0
aF0.0
aF0.0
aF0.0
aF0.0
aF0.0
aF0.0
aF0.0
aF0.0
aF0.0
aF0.0
aF0.0
aF0.0
aF0.0
aF0.0
aF0.0
aF0.0
aF0.0
aF0.0
aF0.0
aF0.0
aF0.0
aF0.0
aF0.0
aF0.0
aF0.0
aF0.0
aF0.0
aF0.0
aF0.0
aF0.0
aF0.0
aF0.0
aF0.0
aF0.0
aF0.0
aF0.0
aF0.0
aF0.0
aF0.0
aF0.0
aF0.0
aF0.0
aF0.0
aF0.0
aF0.0
aF0.0
aF0.0
aF0.0
aF0.0
aF0.0
aF0.0
aF0.0
aF0.0
aF0.0
aF0.0
aF0.0
aF0.0
aF0.0
aF0.0
aF0.0
aF0.0
aF0.0
aF0.0
aF0.0
aF0.0
aF0.0
aF0.0
aF0.0
aF0.0
aF0.0
aF0.0
aF0.0
aF0.0
aF0.0
aF0.0
aF0.0
aF0.0
aF0.0
aF0.0
aF0.0
aF0.0
aF0.0
aF0.0
aF0.0
aF0.0
aF0.0
aF0.0
aF0.0
aF0.0
aF0.0
aF0.0
aF0.0
aF0.0
aF0.0
aF0.0
aF0.0
aF0.0
aF0.0
aF0.0
aF0.0
aF0.0
aF0.0
aF0.0
aF0.0
aF0.0
aF0.0
aF0.0
aF0.0
aF0.0
aF0.0
aF0.0
aF0.0
aF0.0
aF0.0
aF0.0
aF0.0
aF0.0
aF0.0
aF0.0
aF0.0
aF0.0
aF0.0
aF0.0
aF0.0
aF0.0
aF0.0
aF0.0
aF0.0
aF0.0
aF0.0
aF0.0
aF0.0
aF0.0
aF0.0
aF0.0
aF0.0
aF0.0
aF0.0
aF0.0
aF0.0
aF0.0
aF0.0
aF0.0
aF0.0
aF0.0
aF0.0
aF0.0
aF0.0
aF0.0
aF0.0
aF0.0
aF0.0
aF0.0
aF0.0
aF0.0
aF0.0
aF0.0
aF0.0
aF0.0
aF0.0
aF0.0
aF0.0
aF0.0
aF0.0
aF0.0
aF0.0
aF0.0
aF0.0
aF0.0
aF0.0
aF0.0
aF0.0
aF0.0
aF0.0
aF0.0
aF0.0
aF0.0
aF0.0
aF0.0
aF0.0
aF0.0
aF0.0
aF0.0
aF0.0
aF0.0
aF0.0
aF0.0
aF0.0
aF0.0
aF0.0
aF0.0
aF0.0
aF0.0
aF0.0
aF0.0
aF0.0
aF0.0
aF0.0
aF0.0
aF0.0
aF0.0
aF0.0
aF0.0
aF0.0
aF0.0
aF0.0
aF0.0
aF0.0
aF0.0
aF0.0
aF0.0
aF0.0
aF0.0
aF0.0
aF0.0
aF0.0
aF0.0
aF0.0
aF0.0
aF0.0
aF0.0
aF0.0
aF0.0
aF0.0
aF0.0
aF0.0
aF0.0
aF0.0
aF0.0
aF0.0
aF0.0
aF0.0
aF0.0
aF0.0
aF0.0
aF0.0
aF0.0
aF0.0
aF0.0
aF0.0
aF0.0
aF0.0
aF0.0
aF0.0
aF0.0
aF0.0
aF0.0
aF0.0
aF0.0
aF0.0
aF0.0
aF0.0
aF0.0
aF0.0
aF0.0
aF0.0
aF0.0
aF0.0
aF0.0
aF0.0
aF0.0
aF0.0
aF0.0
aF0.0
aF0.0
aF0.0
aF0.0
aF0.0
aF0.0
aF0.0
aF0.0
aF0.0
aF0.0
aF0.0
aF0.0
aF0.0
aF0.0
aF0.0
aF0.0
aF0.0
aF0.0
aF0.0
aF0.0
aF0.0
aF0.0
aF0.0
aF0.0
aF0.0
aF0.0
aF0.0
aF0.0
aF0.0
aF0.0
aF0.0
aF0.0
aF0.0
aF0.0
aF0.0
aF0.0
aF0.0
aF0.0
aF0.0
aF0.0
aF0.0
aF0.0
aF0.0
aF0.0
aF0.0
aF0.0
aF0.0
aF0.0
aF0.0
aF0.0
aF0.0
aF0.0
aF0.0
aF0.0
aF0.0
aF0.0
aF0.0
aF0.0
aF0.0
aF0.0
aF0.0
aF0.0
aF0.0
aF0.0
aF0.0
aF0.0
aF0.0
aF0.0
aF0.0
aF0.0
aF0.0
aF0.0
aF0.0
aF0.0
aF0.0
aF0.0
aF0.0
aF0.0
aF0.0
aF0.0
aF0.0
aF0.0
aF0.0
aF0.0
aF0.0
aF0.0
aF0.0
aF0.0
aF0.0
aF0.0
aF0.0
aF0.0
aF0.0
aF0.0
aF0.0
aF0.0
aF0.0
aF0.0
aF0.0
aF0.0
aF0.0
aF0.0
aF0.0
aF0.0
aF0.0
aF0.0
aF0.0
aF0.0
aF0.0
aF0.0
aF0.0
aF0.0
aF0.0
aF0.0
aF0.0
aF0.0
aF0.0
aF0.0
aF0.0
aF0.0
aF0.0
aF0.0
aF0.0
aF0.0
aF0.0
aF0.0
aF0.0
aF0.0
aF0.0
aF0.0
aF0.0
aF0.0
aF0.0
aF0.0
aF0.0
aF0.0
aF0.0
aF0.0
aF0.0
aF0.0
aF0.0
aF0.0
aF0.0
aF0.0
aF0.0
aF0.0
aF0.0
aF0.0
aF0.0
aF0.0
aF0.0
aF0.0
aF0.0
aF0.0
aF0.0
aF0.0
aF0.0
aF0.0
aF0.0
aF0.0
aF0.0
aF0.0
aF0.0
aF0.0
aF0.0
aF0.0
aF0.0
aF0.0
aF0.0
aF0.0
aF0.0
aF0.0
aF0.0
aF0.0
aF0.0
aF0.0
aF0.0
aF0.0
aF0.0
aF0.0
aF0.0
aF0.0
aF0.0
aF0.0
aF0.0
aF0.0
aF0.0
aF0.0
aF0.0
aF0.0
aF0.0
aF0.0
aF0.0
aF0.0
aF0.0
aF0.0
aF0.0
aF0.0
aF0.0
aF0.0
aF0.0
aF0.0
aF0.0
aF0.0
aF0.0
aF0.0
aF0.0
aF0.0
aF0.0
aF0.0
aF0.0
aF0.0
aF0.0
aF0.0
aF0.0
aF0.0
aF0.0
aF0.0
aF0.0
aF0.0
aF0.0
aF0.0
aF0.0
aF0.0
aF0.0
aF0.0
aF0.0
aF0.0
aF0.0
aF0.0
aF0.0
aF0.0
aF0.0
aF0.0
aF0.0
aF0.0
aF0.0
aF0.0
aF0.0
aF0.0
aF0.0
aF0.0
aF0.0
aF0.0
aF0.0
aF0.0
aF0.0
aF0.0
aF0.0
aF0.0
aF0.0
aF0.0
aF0.0
aF0.0
aF0.0
aF0.0
aF0.0
aF0.0
aF0.0
aF0.0
aF0.0
aF0.0
aF0.0
aF0.0
aF0.0
aF0.0
aF0.0
aF0.0
aF0.0
aF0.0
aF0.0
aF0.0
aF0.0
aF0.0
aF0.0
aF0.0
aF0.0
aF0.0
aF0.0
aF0.0
aF0.0
aF0.0
aF0.0
aF0.0
aF0.0
aF0.0
aF0.0
aF0.0
aF0.0
aF0.0
aF0.0
aF0.0
aF0.0
aF0.0
aF0.0
aF0.0
aF0.0
aF0.0
aF0.0
aF0.0
aF0.0
aF0.0
aF0.0
aF0.0
aF0.0
aF0.0
aF0.0
aF0.0
aF0.0
aF0.0
aF0.0
aF0.0
aF0.0
aF0.0
aF0.0
aF0.0
aF0.0
aF0.0
aF0.0
aF0.0
aF0.0
aF0.0
aF0.0
aF0.0
aF0.0
aF0.0
aF0.0
aF0.0
aF0.0
aF0.0
aF0.0
aF0.0
aF0.0
aF0.0
aF0.0
aF0.0
aF0.0
aF0.0
aF0.0
aF0.0
aF0.0
aF0.0
aF0.0
aF0.0
aF0.0
aF0.0
aF0.0
aF0.0
aF0.0
aF0.0
aF0.0
aF0.0
aF0.0
aF0.0
aF0.0
aF0.0
aF0.0
aF0.0
aF0.0
aF0.0
aF0.0
aF0.0
aF0.0
aF0.0
aF0.0
aF0.0
aF0.0
aF0.0
aF0.0
aF0.0
aF0.0
aF0.0
aF0.0
aF0.0
aF0.0
aF0.0
aF0.0
aF0.0
aF0.0
aF0.0
aF0.0
aF0.0
aF0.0
aF0.0
aF0.0
aF0.0
aF0.0
aF0.0
aF0.0
aF0.0
aF0.0
aF0.0
aF0.0
aF0.0
aF0.0
aF0.0
aF0.0
aF0.0
aF0.0
aF0.0
aF0.0
aF0.0
aF0.0
aF0.0
aF0.0
aF0.0
aF0.0
aF0.0
aF0.0
aF0.0
aF0.0
aF0.0
aF0.0
aF0.0
aF0.0
aF0.0
aF0.0
aF0.0
aF0.0
aF0.0
aF0.0
aF0.0
aF0.0
aF0.0
aF0.0
aF0.0
aF0.0
aF0.0
aF0.0
aF0.0
aF0.0
aF0.0
aF0.0
aF0.0
aF0.0
aF0.0
aF0.0
aF0.0
aF0.0
aF0.0
aF0.0
aF0.0
aF0.0
aF0.0
aF0.0
aF0.0
aF0.0
aF0.0
aF0.0
aF0.0
aF0.0
aF0.0
aF0.0
aF0.0
aF0.0
aF0.0
aF0.0
aF0.0
aF0.0
aF0.0
aF0.0
aF0.0
aF0.0
aF0.0
aF0.0
aF0.0
aF0.0
aF0.0
aF0.0
aF0.0
aF0.0
aF0.0
aF0.0
aF0.0
aF0.0
aF0.0
aF0.0
aF0.0
aF0.0
aF0.0
aF0.0
aF0.0
aF0.0
aF0.0
aF0.0
aF0.0
aF0.0
aF0.0
aF0.0
aF0.0
aF0.0
aF0.0
aF0.0
aF0.0
aF0.0
aF0.0
aF0.0
aF0.0
aF0.0
aF0.0
aF0.0
aF0.0
aF0.0
aF0.0
aF0.0
aF0.0
aF0.0
aF0.0
aF0.0
aF0.0
aF0.0
aF0.0
aF0.0
aF0.0
aF0.0
aF0.0
aF0.0
aF0.0
aF0.0
aF0.0
aF0.0
aF0.0
aF0.0
aF0.0
aF0.0
aF0.0
aF0.0
aF0.0
aF0.0
aF0.0
aF0.0
aF0.0
aF0.0
aF0.0
aF0.0
aF0.0
aF0.0
aF0.0
aF0.0
aF0.0
aF0.0
aF0.0
aF0.0
aF0.0
aF0.0
aF0.0
aF0.0
aF0.0
aF0.0
aF0.0
aF0.0
aF0.0
aF0.0
aF0.0
aF0.0
aF0.0
aF0.0
aF0.0
aF0.0
aF0.0
aF0.0
aF0.0
aF0.0
aF0.0
aF0.0
aF0.0
aF0.0
aF0.0
aF0.0
aF0.0
aF0.0
aF0.0
aF0.0
aF0.0
aF0.0
aF0.0
aF0.0
aF0.0
aF0.0
aF0.0
aF0.0
aF0.0
aF0.0
aF0.0
aF0.0
aF0.0
aF0.0
aF0.0
aF0.0
aF0.0
aF0.0
aF0.0
aF0.0
aF0.0
aF0.0
aF0.0
aF0.0
aF0.0
aF0.0
aF0.0
aF0.0
aF0.0
aF0.0
aF0.0
aF0.0
aF0.0
aF0.0
aF0.0
aF0.0
aF0.0
aF0.0
aF0.0
aF0.0
aF0.0
aF0.0
aF0.0
aF0.0
aF0.0
aF0.0
aF0.0
aF0.0
aF0.0
aF0.0
aF0.0
aF0.0
aF0.0
aF0.0
aF0.0
aF0.0
aF0.0
aF0.0
aF0.0
aF0.0
aF0.0
aF0.0
aF0.0
aF0.0
aF0.0
aF0.0
aF0.0
aF0.0
aF0.0
aF0.0
aF0.0
aF0.0
aF0.0
aF0.0
aF0.0
aF0.0
aF0.0
aF0.0
aF0.0
aF0.0
aF0.0
aF0.0
aF0.0
aF0.0
aF0.0
asVmu
p9
F0.0
sb.
